
main:     file format elf64-littleriscv
main
architecture: riscv:rv64, flags 0x00000112:
EXEC_P, HAS_SYMS, D_PAGED
start address 0x0000000000010150

Program Header:
0x70000003 off    0x00000000000039e3 vaddr 0x0000000000000000 paddr 0x0000000000000000 align 2**0
         filesz 0x000000000000005a memsz 0x0000000000000000 flags r--
    LOAD off    0x0000000000000000 vaddr 0x0000000000010000 paddr 0x0000000000010000 align 2**12
         filesz 0x0000000000002664 memsz 0x0000000000002664 flags r-x
    LOAD off    0x0000000000003000 vaddr 0x0000000000013000 paddr 0x0000000000013000 align 2**12
         filesz 0x00000000000009b8 memsz 0x0000000000000f78 flags rw-
   STACK off    0x0000000000000000 vaddr 0x0000000000000000 paddr 0x0000000000000000 align 2**4
         filesz 0x0000000000000000 memsz 0x0000000000000000 flags rw-

Sections:
Idx Name          Size      VMA               LMA               File off  Algn
  0 .text         0000252c  0000000000010120  0000000000010120  00000120  2**1
                  CONTENTS, ALLOC, LOAD, READONLY, CODE
  1 .rodata       0000000a  0000000000012650  0000000000012650  00002650  2**3
                  CONTENTS, ALLOC, LOAD, READONLY, DATA
  2 .eh_frame     00000004  0000000000012660  0000000000012660  00002660  2**3
                  CONTENTS, ALLOC, LOAD, READONLY, DATA
  3 .init_array   00000010  0000000000013000  0000000000013000  00003000  2**3
                  CONTENTS, ALLOC, LOAD, DATA
  4 .fini_array   00000008  0000000000013010  0000000000013010  00003010  2**3
                  CONTENTS, ALLOC, LOAD, DATA
  5 .data         00000980  0000000000013018  0000000000013018  00003018  2**3
                  CONTENTS, ALLOC, LOAD, DATA
  6 .sdata        00000020  0000000000013998  0000000000013998  00003998  2**3
                  CONTENTS, ALLOC, LOAD, DATA
  7 .sbss         00000038  00000000000139b8  00000000000139b8  000039b8  2**3
                  ALLOC
  8 .bss          00000588  00000000000139f0  00000000000139f0  000039b8  2**3
                  ALLOC
  9 .comment      0000002b  0000000000000000  0000000000000000  000039b8  2**0
                  CONTENTS, READONLY
 10 .riscv.attributes 0000005a  0000000000000000  0000000000000000  000039e3  2**0
                  CONTENTS, READONLY
 11 .debug_aranges 00000030  0000000000000000  0000000000000000  00003a3d  2**0
                  CONTENTS, READONLY, DEBUGGING, OCTETS
 12 .debug_info   000000af  0000000000000000  0000000000000000  00003a6d  2**0
                  CONTENTS, READONLY, DEBUGGING, OCTETS
 13 .debug_abbrev 00000054  0000000000000000  0000000000000000  00003b1c  2**0
                  CONTENTS, READONLY, DEBUGGING, OCTETS
 14 .debug_line   0000008a  0000000000000000  0000000000000000  00003b70  2**0
                  CONTENTS, READONLY, DEBUGGING, OCTETS
 15 .debug_frame  00000040  0000000000000000  0000000000000000  00003c00  2**3
                  CONTENTS, READONLY, DEBUGGING, OCTETS
 16 .debug_str    000000bd  0000000000000000  0000000000000000  00003c40  2**0
                  CONTENTS, READONLY, DEBUGGING, OCTETS
 17 .debug_line_str 00000032  0000000000000000  0000000000000000  00003cfd  2**0
                  CONTENTS, READONLY, DEBUGGING, OCTETS
SYMBOL TABLE:
0000000000010120 l    d  .text	0000000000000000 .text
0000000000012650 l    d  .rodata	0000000000000000 .rodata
0000000000012660 l    d  .eh_frame	0000000000000000 .eh_frame
0000000000013000 l    d  .init_array	0000000000000000 .init_array
0000000000013010 l    d  .fini_array	0000000000000000 .fini_array
0000000000013018 l    d  .data	0000000000000000 .data
0000000000013998 l    d  .sdata	0000000000000000 .sdata
00000000000139b8 l    d  .sbss	0000000000000000 .sbss
00000000000139f0 l    d  .bss	0000000000000000 .bss
0000000000000000 l    d  .comment	0000000000000000 .comment
0000000000000000 l    d  .riscv.attributes	0000000000000000 .riscv.attributes
0000000000000000 l    d  .debug_aranges	0000000000000000 .debug_aranges
0000000000000000 l    d  .debug_info	0000000000000000 .debug_info
0000000000000000 l    d  .debug_abbrev	0000000000000000 .debug_abbrev
0000000000000000 l    d  .debug_line	0000000000000000 .debug_line
0000000000000000 l    d  .debug_frame	0000000000000000 .debug_frame
0000000000000000 l    d  .debug_str	0000000000000000 .debug_str
0000000000000000 l    d  .debug_line_str	0000000000000000 .debug_line_str
0000000000000000 l    df *ABS*	0000000000000000 exit.c
0000000000000000 l    df *ABS*	0000000000000000 __call_atexit.c
000000000001013c l     F .text	0000000000000014 register_fini
0000000000000000 l    df *ABS*	0000000000000000 crt0.o
0000000000000000 l    df *ABS*	0000000000000000 crtstuff.c
0000000000012660 l     O .eh_frame	0000000000000000 __EH_FRAME_BEGIN__
000000000001018e l     F .text	0000000000000000 __do_global_dtors_aux
00000000000139f0 l     O .bss	0000000000000001 completed.1
0000000000013010 l     O .fini_array	0000000000000000 __do_global_dtors_aux_fini_array_entry
00000000000101c4 l     F .text	0000000000000000 frame_dummy
00000000000139f8 l     O .bss	0000000000000030 object.0
0000000000013008 l     O .init_array	0000000000000000 __frame_dummy_init_array_entry
0000000000000000 l    df *ABS*	0000000000000000 main.c
0000000000000000 l    df *ABS*	0000000000000000 findfp.c
0000000000010222 l     F .text	0000000000000004 __fp_lock
0000000000010226 l     F .text	000000000000001a stdio_exit_handler
0000000000010240 l     F .text	0000000000000044 cleanup_stdio
0000000000010284 l     F .text	0000000000000004 __fp_unlock
0000000000010288 l     F .text	000000000000010e global_stdio_init.part.0
0000000000000000 l    df *ABS*	0000000000000000 fwalk.c
0000000000000000 l    df *ABS*	0000000000000000 puts.c
0000000000000000 l    df *ABS*	0000000000000000 stdio.c
0000000000000000 l    df *ABS*	0000000000000000 closer.c
0000000000000000 l    df *ABS*	0000000000000000 reent.c
0000000000000000 l    df *ABS*	0000000000000000 impure.c
0000000000000000 l    df *ABS*	0000000000000000 lseekr.c
0000000000000000 l    df *ABS*	0000000000000000 readr.c
0000000000000000 l    df *ABS*	0000000000000000 writer.c
0000000000000000 l    df *ABS*	0000000000000000 init.c
0000000000000000 l    df *ABS*	0000000000000000 libc_a-memset.o
0000000000000000 l    df *ABS*	0000000000000000 strlen.c
0000000000000000 l    df *ABS*	0000000000000000 atexit.c
0000000000000000 l    df *ABS*	0000000000000000 freer.c
0000000000000000 l    df *ABS*	0000000000000000 mallocr.c
0000000000000000 l    df *ABS*	0000000000000000 mlock.c
0000000000000000 l    df *ABS*	0000000000000000 fclose.c
0000000000000000 l    df *ABS*	0000000000000000 fflush.c
0000000000000000 l    df *ABS*	0000000000000000 fvwrite.c
0000000000000000 l    df *ABS*	0000000000000000 wsetup.c
0000000000000000 l    df *ABS*	0000000000000000 memchr.c
0000000000000000 l    df *ABS*	0000000000000000 sbrkr.c
0000000000000000 l    df *ABS*	0000000000000000 fini.c
0000000000000000 l    df *ABS*	0000000000000000 memmove-stub.c
0000000000000000 l    df *ABS*	0000000000000000 memcpy.c
0000000000000000 l    df *ABS*	0000000000000000 __atexit.c
0000000000000000 l    df *ABS*	0000000000000000 reallocr.c
0000000000000000 l    df *ABS*	0000000000000000 makebuf.c
0000000000000000 l    df *ABS*	0000000000000000 fstatr.c
0000000000000000 l    df *ABS*	0000000000000000 isattyr.c
0000000000000000 l    df *ABS*	0000000000000000 sys_close.c
0000000000000000 l    df *ABS*	0000000000000000 sys_exit.c
0000000000000000 l    df *ABS*	0000000000000000 sys_fstat.c
0000000000000000 l    df *ABS*	0000000000000000 sys_isatty.c
0000000000000000 l    df *ABS*	0000000000000000 sys_lseek.c
0000000000000000 l    df *ABS*	0000000000000000 sys_read.c
0000000000000000 l    df *ABS*	0000000000000000 sys_sbrk.c
00000000000139e8 l     O .sbss	0000000000000008 heap_end.0
0000000000000000 l    df *ABS*	0000000000000000 sys_write.c
0000000000000000 l    df *ABS*	0000000000000000 sys_conv_stat.c
0000000000000000 l    df *ABS*	0000000000000000 errno.c
0000000000000000 l    df *ABS*	0000000000000000 crtstuff.c
0000000000012660 l     O .eh_frame	0000000000000000 __FRAME_END__
0000000000013018 l       .fini_array	0000000000000000 __fini_array_end
0000000000013010 l       .fini_array	0000000000000000 __fini_array_start
0000000000013010 l       .init_array	0000000000000000 __init_array_end
0000000000013000 l       .init_array	0000000000000000 __preinit_array_end
0000000000013000 l       .init_array	0000000000000000 __init_array_start
0000000000013000 l       .init_array	0000000000000000 __preinit_array_start
0000000000012434 g     F .text	0000000000000030 _isatty_r
000000000001052c g     F .text	0000000000000088 _puts_r
0000000000010744 g     F .text	0000000000000036 _lseek_r
0000000000013818 g       *ABS*	0000000000000000 __global_pointer$
000000000001064a g     F .text	000000000000003e __sseek
0000000000010466 g     F .text	0000000000000018 __sinit
00000000000113b8 g     F .text	0000000000000002 __malloc_unlock
0000000000011c0c g     F .text	00000000000000e6 memmove
0000000000012646 g     F .text	0000000000000006 __errno
00000000000125ec g     F .text	000000000000005a _conv_stat
00000000000139b8 g     O .sbss	0000000000000008 __stdio_exit_handler
0000000000012400 g     F .text	0000000000000034 _fstat_r
00000000000139c0 g     O .sbss	0000000000000004 errno
00000000000105f4 g     F .text	0000000000000004 __seofread
0000000000013998 g       .sdata	0000000000000000 __SDATA_BEGIN__
0000000000011cf2 g     F .text	00000000000000ec memcpy
00000000000105b4 g     F .text	0000000000000008 puts
00000000000124b2 g     F .text	0000000000000040 _fstat
00000000000139e0 g     O .sbss	0000000000000008 __malloc_top_pad
0000000000013998 g     O .sdata	0000000000000000 .hidden __dso_handle
000000000001168e g     F .text	0000000000000350 __sfvwrite_r
0000000000011ba4 g     F .text	0000000000000030 _sbrk_r
000000000001077a g     F .text	0000000000000036 _read_r
00000000000113ba g     F .text	00000000000000a8 _fclose_r
0000000000011634 g     F .text	000000000000005a fflush
00000000000139d8 g     O .sbss	0000000000000008 __malloc_max_sbrked_mem
00000000000124f2 g     F .text	0000000000000026 _isatty
0000000000011e4c g     F .text	000000000000042e _realloc_r
00000000000107e6 g     F .text	000000000000006a __libc_init_array
0000000000012570 g     F .text	0000000000000050 _sbrk
0000000000010482 g     F .text	0000000000000014 __fp_lock_all
0000000000011bd4 g     F .text	0000000000000038 __libc_fini_array
00000000000106be g     F .text	0000000000000086 _reclaim_reent
0000000000013a28 g     O .bss	0000000000000210 __sf
000000000001047e g     F .text	0000000000000002 __sfp_lock_acquire
0000000000011afc g     F .text	00000000000000a8 memchr
0000000000010b40 g     F .text	0000000000000240 _free_r
0000000000010994 g     F .text	00000000000000d2 __call_exitprocs
0000000000013c60 g     O .bss	0000000000000318 __atexit0
00000000000139a8 g     O .sdata	0000000000000008 __malloc_sbrk_base
0000000000010150 g     F .text	000000000000003e _start
0000000000012518 g     F .text	000000000000002c _lseek
0000000000011dde g     F .text	000000000000006e __register_exitproc
0000000000013c38 g     O .bss	0000000000000028 __malloc_current_mallinfo
000000000001068e g     F .text	0000000000000030 _close_r
00000000000119de g     F .text	000000000000011e __swsetup_r
0000000000010396 g     F .text	00000000000000d0 __sfp
0000000000013f78 g       .bss	0000000000000000 __BSS_END__
0000000000013188 g     O .data	0000000000000810 __malloc_av_
00000000000139c8 g     O .sbss	0000000000000008 __atexit
00000000000105bc g     F .text	0000000000000038 __sread
00000000000113b6 g     F .text	0000000000000002 __malloc_lock
0000000000011602 g     F .text	0000000000000032 _fflush_r
00000000000139b8 g       .sbss	0000000000000000 __bss_start
0000000000010850 g     F .text	00000000000000aa memset
00000000000101e0 g     F .text	0000000000000042 main
00000000000139d0 g     O .sbss	0000000000000008 __malloc_max_total_mem
0000000000010688 g     F .text	0000000000000006 __sclose
0000000000011462 g     F .text	0000000000000008 fclose
0000000000010d80 g     F .text	0000000000000636 _malloc_r
0000000000010a72 g     F .text	00000000000000ce _malloc_trim_r
0000000000010a66 g     F .text	000000000000000c atexit
00000000000107b0 g     F .text	0000000000000036 _write_r
00000000000139a0 g     O .sdata	0000000000000008 _impure_ptr
000000000001146a g     F .text	0000000000000198 __sflush_r
00000000000104aa g     F .text	0000000000000082 _fwalk_sglue
0000000000010496 g     F .text	0000000000000014 __fp_unlock_all
0000000000012378 g     F .text	0000000000000088 __swhatbuf_r
0000000000013018 g       .data	0000000000000000 __DATA_BEGIN__
0000000000013018 g     O .data	0000000000000018 __sglue
00000000000125c0 g     F .text	000000000000002c _write
00000000000139b8 g       .sdata	0000000000000000 _edata
0000000000013f78 g       .bss	0000000000000000 _end
00000000000105f8 g     F .text	0000000000000052 __swrite
00000000000139b0 g     O .sdata	0000000000000008 __malloc_trim_threshold
0000000000010120 g     F .text	000000000000001c exit
0000000000013030 g     O .data	0000000000000158 _impure_data
0000000000010480 g     F .text	0000000000000002 __sfp_lock_release
0000000000012544 g     F .text	000000000000002c _read
0000000000012490 g     F .text	0000000000000022 _exit
000000000001227a g     F .text	00000000000000fe __smakebuf_r
00000000000108fa g     F .text	000000000000009a strlen
0000000000012464 g     F .text	000000000000002c _close



Disassembly of section .text:

0000000000010120 <exit>:
   10120:	1141                	addi	sp,sp,-16
   10122:	4581                	li	a1,0
   10124:	e022                	sd	s0,0(sp)
   10126:	e406                	sd	ra,8(sp)
   10128:	842a                	mv	s0,a0
   1012a:	06b000ef          	jal	10994 <__call_exitprocs>
   1012e:	1a01b783          	ld	a5,416(gp) # 139b8 <__stdio_exit_handler>
   10132:	c391                	beqz	a5,10136 <exit+0x16>
   10134:	9782                	jalr	a5
   10136:	8522                	mv	a0,s0
   10138:	358020ef          	jal	12490 <_exit>

000000000001013c <register_fini>:
   1013c:	00000793          	li	a5,0
   10140:	c799                	beqz	a5,1014e <register_fini+0x12>
   10142:	00002517          	auipc	a0,0x2
   10146:	a9250513          	addi	a0,a0,-1390 # 11bd4 <__libc_fini_array>
   1014a:	11d0006f          	j	10a66 <atexit>
   1014e:	8082                	ret

0000000000010150 <_start>:
   10150:	00003197          	auipc	gp,0x3
   10154:	6c818193          	addi	gp,gp,1736 # 13818 <__global_pointer$>
   10158:	1a018513          	addi	a0,gp,416 # 139b8 <__stdio_exit_handler>
   1015c:	76018613          	addi	a2,gp,1888 # 13f78 <__BSS_END__>
   10160:	8e09                	sub	a2,a2,a0
   10162:	4581                	li	a1,0
   10164:	6ec000ef          	jal	10850 <memset>
   10168:	00001517          	auipc	a0,0x1
   1016c:	8fe50513          	addi	a0,a0,-1794 # 10a66 <atexit>
   10170:	c519                	beqz	a0,1017e <_start+0x2e>
   10172:	00002517          	auipc	a0,0x2
   10176:	a6250513          	addi	a0,a0,-1438 # 11bd4 <__libc_fini_array>
   1017a:	0ed000ef          	jal	10a66 <atexit>
   1017e:	668000ef          	jal	107e6 <__libc_init_array>
   10182:	4502                	lw	a0,0(sp)
   10184:	002c                	addi	a1,sp,8
   10186:	4601                	li	a2,0
   10188:	058000ef          	jal	101e0 <main>
   1018c:	bf51                	j	10120 <exit>

000000000001018e <__do_global_dtors_aux>:
   1018e:	1d81c783          	lbu	a5,472(gp) # 139f0 <completed.1>
   10192:	eb85                	bnez	a5,101c2 <__do_global_dtors_aux+0x34>
   10194:	00000793          	li	a5,0
   10198:	c38d                	beqz	a5,101ba <__do_global_dtors_aux+0x2c>
   1019a:	1141                	addi	sp,sp,-16
   1019c:	00002517          	auipc	a0,0x2
   101a0:	4c450513          	addi	a0,a0,1220 # 12660 <__EH_FRAME_BEGIN__>
   101a4:	e406                	sd	ra,8(sp)
   101a6:	00000097          	auipc	ra,0x0
   101aa:	000000e7          	jalr	zero # 0 <exit-0x10120>
   101ae:	60a2                	ld	ra,8(sp)
   101b0:	4785                	li	a5,1
   101b2:	1cf18c23          	sb	a5,472(gp) # 139f0 <completed.1>
   101b6:	0141                	addi	sp,sp,16
   101b8:	8082                	ret
   101ba:	4785                	li	a5,1
   101bc:	1cf18c23          	sb	a5,472(gp) # 139f0 <completed.1>
   101c0:	8082                	ret
   101c2:	8082                	ret

00000000000101c4 <frame_dummy>:
   101c4:	00000793          	li	a5,0
   101c8:	cb99                	beqz	a5,101de <frame_dummy+0x1a>
   101ca:	1e018593          	addi	a1,gp,480 # 139f8 <object.0>
   101ce:	00002517          	auipc	a0,0x2
   101d2:	49250513          	addi	a0,a0,1170 # 12660 <__EH_FRAME_BEGIN__>
   101d6:	00000317          	auipc	t1,0x0
   101da:	00000067          	jr	zero # 0 <exit-0x10120>
   101de:	8082                	ret

00000000000101e0 <main>:
#include <stdio.h>

int main() {
   101e0:	1101                	addi	sp,sp,-32
   101e2:	ec06                	sd	ra,24(sp)
   101e4:	e822                	sd	s0,16(sp)
   101e6:	1000                	addi	s0,sp,32

  char a = 'a';
   101e8:	06100793          	li	a5,97
   101ec:	fef407a3          	sb	a5,-17(s0)
  if (a != 'a') {
   101f0:	fef44783          	lbu	a5,-17(s0)
   101f4:	873e                	mv	a4,a5
   101f6:	06100793          	li	a5,97
   101fa:	00f70863          	beq	a4,a5,1020a <main+0x2a>
    printf("Hello\n");
   101fe:	67c9                	lui	a5,0x12
   10200:	65078513          	addi	a0,a5,1616 # 12650 <__errno+0xa>
   10204:	3b0000ef          	jal	105b4 <puts>
   10208:	a039                	j	10216 <main+0x36>
  } else {
    *((volatile char*) &a) = (char)0x99;
   1020a:	fef40793          	addi	a5,s0,-17
   1020e:	f9900713          	li	a4,-103
   10212:	00e78023          	sb	a4,0(a5)
  }
  return 0;
   10216:	4781                	li	a5,0
}
   10218:	853e                	mv	a0,a5
   1021a:	60e2                	ld	ra,24(sp)
   1021c:	6442                	ld	s0,16(sp)
   1021e:	6105                	addi	sp,sp,32
   10220:	8082                	ret

0000000000010222 <__fp_lock>:
   10222:	4501                	li	a0,0
   10224:	8082                	ret

0000000000010226 <stdio_exit_handler>:
   10226:	00003617          	auipc	a2,0x3
   1022a:	df260613          	addi	a2,a2,-526 # 13018 <__sglue>
   1022e:	00001597          	auipc	a1,0x1
   10232:	18c58593          	addi	a1,a1,396 # 113ba <_fclose_r>
   10236:	00003517          	auipc	a0,0x3
   1023a:	dfa50513          	addi	a0,a0,-518 # 13030 <_impure_data>
   1023e:	a4b5                	j	104aa <_fwalk_sglue>

0000000000010240 <cleanup_stdio>:
   10240:	650c                	ld	a1,8(a0)
   10242:	1141                	addi	sp,sp,-16
   10244:	e022                	sd	s0,0(sp)
   10246:	e406                	sd	ra,8(sp)
   10248:	21018793          	addi	a5,gp,528 # 13a28 <__sf>
   1024c:	842a                	mv	s0,a0
   1024e:	00f58463          	beq	a1,a5,10256 <cleanup_stdio+0x16>
   10252:	168010ef          	jal	113ba <_fclose_r>
   10256:	680c                	ld	a1,16(s0)
   10258:	2c018793          	addi	a5,gp,704 # 13ad8 <__sf+0xb0>
   1025c:	00f58563          	beq	a1,a5,10266 <cleanup_stdio+0x26>
   10260:	8522                	mv	a0,s0
   10262:	158010ef          	jal	113ba <_fclose_r>
   10266:	6c0c                	ld	a1,24(s0)
   10268:	37018793          	addi	a5,gp,880 # 13b88 <__sf+0x160>
   1026c:	00f58863          	beq	a1,a5,1027c <cleanup_stdio+0x3c>
   10270:	8522                	mv	a0,s0
   10272:	6402                	ld	s0,0(sp)
   10274:	60a2                	ld	ra,8(sp)
   10276:	0141                	addi	sp,sp,16
   10278:	1420106f          	j	113ba <_fclose_r>
   1027c:	60a2                	ld	ra,8(sp)
   1027e:	6402                	ld	s0,0(sp)
   10280:	0141                	addi	sp,sp,16
   10282:	8082                	ret

0000000000010284 <__fp_unlock>:
   10284:	4501                	li	a0,0
   10286:	8082                	ret

0000000000010288 <global_stdio_init.part.0>:
   10288:	7179                	addi	sp,sp,-48
   1028a:	f406                	sd	ra,40(sp)
   1028c:	f022                	sd	s0,32(sp)
   1028e:	ec26                	sd	s1,24(sp)
   10290:	21018413          	addi	s0,gp,528 # 13a28 <__sf>
   10294:	e84a                	sd	s2,16(sp)
   10296:	e44e                	sd	s3,8(sp)
   10298:	e052                	sd	s4,0(sp)
   1029a:	00000717          	auipc	a4,0x0
   1029e:	f8c70713          	addi	a4,a4,-116 # 10226 <stdio_exit_handler>
   102a2:	4791                	li	a5,4
   102a4:	4621                	li	a2,8
   102a6:	4581                	li	a1,0
   102a8:	2b418513          	addi	a0,gp,692 # 13acc <__sf+0xa4>
   102ac:	1ae1b023          	sd	a4,416(gp) # 139b8 <__stdio_exit_handler>
   102b0:	c81c                	sw	a5,16(s0)
   102b2:	00043023          	sd	zero,0(s0)
   102b6:	00043423          	sd	zero,8(s0)
   102ba:	0a042623          	sw	zero,172(s0)
   102be:	00043c23          	sd	zero,24(s0)
   102c2:	02042023          	sw	zero,32(s0)
   102c6:	02042423          	sw	zero,40(s0)
   102ca:	586000ef          	jal	10850 <memset>
   102ce:	67c1                	lui	a5,0x10
   102d0:	00000a17          	auipc	s4,0x0
   102d4:	2eca0a13          	addi	s4,s4,748 # 105bc <__sread>
   102d8:	00000997          	auipc	s3,0x0
   102dc:	32098993          	addi	s3,s3,800 # 105f8 <__swrite>
   102e0:	00000917          	auipc	s2,0x0
   102e4:	36a90913          	addi	s2,s2,874 # 1064a <__sseek>
   102e8:	00000497          	auipc	s1,0x0
   102ec:	3a048493          	addi	s1,s1,928 # 10688 <__sclose>
   102f0:	07a5                	addi	a5,a5,9 # 10009 <exit-0x117>
   102f2:	4621                	li	a2,8
   102f4:	4581                	li	a1,0
   102f6:	36418513          	addi	a0,gp,868 # 13b7c <__sf+0x154>
   102fa:	0cf42023          	sw	a5,192(s0)
   102fe:	03443c23          	sd	s4,56(s0)
   10302:	05343023          	sd	s3,64(s0)
   10306:	05243423          	sd	s2,72(s0)
   1030a:	e824                	sd	s1,80(s0)
   1030c:	f800                	sd	s0,48(s0)
   1030e:	0a043823          	sd	zero,176(s0)
   10312:	0a043c23          	sd	zero,184(s0)
   10316:	14042e23          	sw	zero,348(s0)
   1031a:	0c043423          	sd	zero,200(s0)
   1031e:	0c042823          	sw	zero,208(s0)
   10322:	0c042c23          	sw	zero,216(s0)
   10326:	52a000ef          	jal	10850 <memset>
   1032a:	000207b7          	lui	a5,0x20
   1032e:	07c9                	addi	a5,a5,18 # 20012 <__BSS_END__+0xc09a>
   10330:	2c018713          	addi	a4,gp,704 # 13ad8 <__sf+0xb0>
   10334:	4621                	li	a2,8
   10336:	4581                	li	a1,0
   10338:	41418513          	addi	a0,gp,1044 # 13c2c <__sf+0x204>
   1033c:	0f443423          	sd	s4,232(s0)
   10340:	0f343823          	sd	s3,240(s0)
   10344:	0f243c23          	sd	s2,248(s0)
   10348:	10943023          	sd	s1,256(s0)
   1034c:	16f42823          	sw	a5,368(s0)
   10350:	16043023          	sd	zero,352(s0)
   10354:	16043423          	sd	zero,360(s0)
   10358:	20042623          	sw	zero,524(s0)
   1035c:	16043c23          	sd	zero,376(s0)
   10360:	18042023          	sw	zero,384(s0)
   10364:	18042423          	sw	zero,392(s0)
   10368:	f078                	sd	a4,224(s0)
   1036a:	4e6000ef          	jal	10850 <memset>
   1036e:	37018793          	addi	a5,gp,880 # 13b88 <__sf+0x160>
   10372:	19443c23          	sd	s4,408(s0)
   10376:	1b343023          	sd	s3,416(s0)
   1037a:	1b243423          	sd	s2,424(s0)
   1037e:	1a943823          	sd	s1,432(s0)
   10382:	70a2                	ld	ra,40(sp)
   10384:	18f43823          	sd	a5,400(s0)
   10388:	7402                	ld	s0,32(sp)
   1038a:	64e2                	ld	s1,24(sp)
   1038c:	6942                	ld	s2,16(sp)
   1038e:	69a2                	ld	s3,8(sp)
   10390:	6a02                	ld	s4,0(sp)
   10392:	6145                	addi	sp,sp,48
   10394:	8082                	ret

0000000000010396 <__sfp>:
   10396:	1a01b783          	ld	a5,416(gp) # 139b8 <__stdio_exit_handler>
   1039a:	7179                	addi	sp,sp,-48
   1039c:	e84a                	sd	s2,16(sp)
   1039e:	f406                	sd	ra,40(sp)
   103a0:	f022                	sd	s0,32(sp)
   103a2:	ec26                	sd	s1,24(sp)
   103a4:	e44e                	sd	s3,8(sp)
   103a6:	892a                	mv	s2,a0
   103a8:	c7d5                	beqz	a5,10454 <__sfp+0xbe>
   103aa:	00003497          	auipc	s1,0x3
   103ae:	c6e48493          	addi	s1,s1,-914 # 13018 <__sglue>
   103b2:	0b000993          	li	s3,176
   103b6:	4498                	lw	a4,8(s1)
   103b8:	6880                	ld	s0,16(s1)
   103ba:	06e05463          	blez	a4,10422 <__sfp+0x8c>
   103be:	1702                	slli	a4,a4,0x20
   103c0:	9301                	srli	a4,a4,0x20
   103c2:	03370733          	mul	a4,a4,s3
   103c6:	9722                	add	a4,a4,s0
   103c8:	a029                	j	103d2 <__sfp+0x3c>
   103ca:	0b040413          	addi	s0,s0,176
   103ce:	04e40a63          	beq	s0,a4,10422 <__sfp+0x8c>
   103d2:	01041783          	lh	a5,16(s0)
   103d6:	fbf5                	bnez	a5,103ca <__sfp+0x34>
   103d8:	77c1                	lui	a5,0xffff0
   103da:	0785                	addi	a5,a5,1 # ffffffffffff0001 <__BSS_END__+0xfffffffffffdc089>
   103dc:	0a042623          	sw	zero,172(s0)
   103e0:	00043023          	sd	zero,0(s0)
   103e4:	00043423          	sd	zero,8(s0)
   103e8:	00043c23          	sd	zero,24(s0)
   103ec:	02042023          	sw	zero,32(s0)
   103f0:	02042423          	sw	zero,40(s0)
   103f4:	c81c                	sw	a5,16(s0)
   103f6:	4621                	li	a2,8
   103f8:	4581                	li	a1,0
   103fa:	0a440513          	addi	a0,s0,164
   103fe:	452000ef          	jal	10850 <memset>
   10402:	04043c23          	sd	zero,88(s0)
   10406:	06042023          	sw	zero,96(s0)
   1040a:	06043c23          	sd	zero,120(s0)
   1040e:	08042023          	sw	zero,128(s0)
   10412:	70a2                	ld	ra,40(sp)
   10414:	8522                	mv	a0,s0
   10416:	7402                	ld	s0,32(sp)
   10418:	64e2                	ld	s1,24(sp)
   1041a:	6942                	ld	s2,16(sp)
   1041c:	69a2                	ld	s3,8(sp)
   1041e:	6145                	addi	sp,sp,48
   10420:	8082                	ret
   10422:	6080                	ld	s0,0(s1)
   10424:	c019                	beqz	s0,1042a <__sfp+0x94>
   10426:	84a2                	mv	s1,s0
   10428:	b779                	j	103b6 <__sfp+0x20>
   1042a:	2d800593          	li	a1,728
   1042e:	854a                	mv	a0,s2
   10430:	151000ef          	jal	10d80 <_malloc_r>
   10434:	842a                	mv	s0,a0
   10436:	c115                	beqz	a0,1045a <__sfp+0xc4>
   10438:	4791                	li	a5,4
   1043a:	0561                	addi	a0,a0,24
   1043c:	00043023          	sd	zero,0(s0)
   10440:	c41c                	sw	a5,8(s0)
   10442:	e808                	sd	a0,16(s0)
   10444:	2c000613          	li	a2,704
   10448:	4581                	li	a1,0
   1044a:	406000ef          	jal	10850 <memset>
   1044e:	e080                	sd	s0,0(s1)
   10450:	84a2                	mv	s1,s0
   10452:	b795                	j	103b6 <__sfp+0x20>
   10454:	e35ff0ef          	jal	10288 <global_stdio_init.part.0>
   10458:	bf89                	j	103aa <__sfp+0x14>
   1045a:	0004b023          	sd	zero,0(s1)
   1045e:	47b1                	li	a5,12
   10460:	00f92023          	sw	a5,0(s2)
   10464:	b77d                	j	10412 <__sfp+0x7c>

0000000000010466 <__sinit>:
   10466:	653c                	ld	a5,72(a0)
   10468:	c391                	beqz	a5,1046c <__sinit+0x6>
   1046a:	8082                	ret
   1046c:	1a01b783          	ld	a5,416(gp) # 139b8 <__stdio_exit_handler>
   10470:	00000717          	auipc	a4,0x0
   10474:	dd070713          	addi	a4,a4,-560 # 10240 <cleanup_stdio>
   10478:	e538                	sd	a4,72(a0)
   1047a:	fbe5                	bnez	a5,1046a <__sinit+0x4>
   1047c:	b531                	j	10288 <global_stdio_init.part.0>

000000000001047e <__sfp_lock_acquire>:
   1047e:	8082                	ret

0000000000010480 <__sfp_lock_release>:
   10480:	8082                	ret

0000000000010482 <__fp_lock_all>:
   10482:	00003617          	auipc	a2,0x3
   10486:	b9660613          	addi	a2,a2,-1130 # 13018 <__sglue>
   1048a:	00000597          	auipc	a1,0x0
   1048e:	d9858593          	addi	a1,a1,-616 # 10222 <__fp_lock>
   10492:	4501                	li	a0,0
   10494:	a819                	j	104aa <_fwalk_sglue>

0000000000010496 <__fp_unlock_all>:
   10496:	00003617          	auipc	a2,0x3
   1049a:	b8260613          	addi	a2,a2,-1150 # 13018 <__sglue>
   1049e:	00000597          	auipc	a1,0x0
   104a2:	de658593          	addi	a1,a1,-538 # 10284 <__fp_unlock>
   104a6:	4501                	li	a0,0
   104a8:	a009                	j	104aa <_fwalk_sglue>

00000000000104aa <_fwalk_sglue>:
   104aa:	715d                	addi	sp,sp,-80
   104ac:	f84a                	sd	s2,48(sp)
   104ae:	f44e                	sd	s3,40(sp)
   104b0:	f052                	sd	s4,32(sp)
   104b2:	ec56                	sd	s5,24(sp)
   104b4:	e85a                	sd	s6,16(sp)
   104b6:	e45e                	sd	s7,8(sp)
   104b8:	e062                	sd	s8,0(sp)
   104ba:	e486                	sd	ra,72(sp)
   104bc:	e0a2                	sd	s0,64(sp)
   104be:	fc26                	sd	s1,56(sp)
   104c0:	8a2a                	mv	s4,a0
   104c2:	8b2e                	mv	s6,a1
   104c4:	89b2                	mv	s3,a2
   104c6:	4901                	li	s2,0
   104c8:	0b000b93          	li	s7,176
   104cc:	4c05                	li	s8,1
   104ce:	5afd                	li	s5,-1
   104d0:	0089a483          	lw	s1,8(s3)
   104d4:	0109b403          	ld	s0,16(s3)
   104d8:	02905963          	blez	s1,1050a <_fwalk_sglue+0x60>
   104dc:	1482                	slli	s1,s1,0x20
   104de:	9081                	srli	s1,s1,0x20
   104e0:	037484b3          	mul	s1,s1,s7
   104e4:	94a2                	add	s1,s1,s0
   104e6:	01045783          	lhu	a5,16(s0)
   104ea:	00fc7c63          	bgeu	s8,a5,10502 <_fwalk_sglue+0x58>
   104ee:	01241783          	lh	a5,18(s0)
   104f2:	85a2                	mv	a1,s0
   104f4:	8552                	mv	a0,s4
   104f6:	01578663          	beq	a5,s5,10502 <_fwalk_sglue+0x58>
   104fa:	9b02                	jalr	s6
   104fc:	01256933          	or	s2,a0,s2
   10500:	2901                	sext.w	s2,s2
   10502:	0b040413          	addi	s0,s0,176
   10506:	fe9410e3          	bne	s0,s1,104e6 <_fwalk_sglue+0x3c>
   1050a:	0009b983          	ld	s3,0(s3)
   1050e:	fc0991e3          	bnez	s3,104d0 <_fwalk_sglue+0x26>
   10512:	60a6                	ld	ra,72(sp)
   10514:	6406                	ld	s0,64(sp)
   10516:	74e2                	ld	s1,56(sp)
   10518:	79a2                	ld	s3,40(sp)
   1051a:	7a02                	ld	s4,32(sp)
   1051c:	6ae2                	ld	s5,24(sp)
   1051e:	6b42                	ld	s6,16(sp)
   10520:	6ba2                	ld	s7,8(sp)
   10522:	6c02                	ld	s8,0(sp)
   10524:	854a                	mv	a0,s2
   10526:	7942                	ld	s2,48(sp)
   10528:	6161                	addi	sp,sp,80
   1052a:	8082                	ret

000000000001052c <_puts_r>:
   1052c:	7159                	addi	sp,sp,-112
   1052e:	f0a2                	sd	s0,96(sp)
   10530:	842a                	mv	s0,a0
   10532:	852e                	mv	a0,a1
   10534:	eca6                	sd	s1,88(sp)
   10536:	f486                	sd	ra,104(sp)
   10538:	84ae                	mv	s1,a1
   1053a:	3c0000ef          	jal	108fa <strlen>
   1053e:	643c                	ld	a5,72(s0)
   10540:	00002597          	auipc	a1,0x2
   10544:	11858593          	addi	a1,a1,280 # 12658 <__errno+0x12>
   10548:	00150813          	addi	a6,a0,1
   1054c:	4605                	li	a2,1
   1054e:	1814                	addi	a3,sp,48
   10550:	4709                	li	a4,2
   10552:	e0ae                	sd	a1,64(sp)
   10554:	f826                	sd	s1,48(sp)
   10556:	fc2a                	sd	a0,56(sp)
   10558:	f442                	sd	a6,40(sp)
   1055a:	e4b2                	sd	a2,72(sp)
   1055c:	ec36                	sd	a3,24(sp)
   1055e:	d03a                	sw	a4,32(sp)
   10560:	680c                	ld	a1,16(s0)
   10562:	c3b9                	beqz	a5,105a8 <_puts_r+0x7c>
   10564:	01059783          	lh	a5,16(a1)
   10568:	0ac5a703          	lw	a4,172(a1)
   1056c:	6609                	lui	a2,0x2
   1056e:	03279693          	slli	a3,a5,0x32
   10572:	0206c563          	bltz	a3,1059c <_puts_r+0x70>
   10576:	76f9                	lui	a3,0xffffe
   10578:	16fd                	addi	a3,a3,-1 # ffffffffffffdfff <__BSS_END__+0xfffffffffffea087>
   1057a:	8fd1                	or	a5,a5,a2
   1057c:	8f75                	and	a4,a4,a3
   1057e:	00f59823          	sh	a5,16(a1)
   10582:	0ae5a623          	sw	a4,172(a1)
   10586:	8522                	mv	a0,s0
   10588:	0830                	addi	a2,sp,24
   1058a:	104010ef          	jal	1168e <__sfvwrite_r>
   1058e:	e919                	bnez	a0,105a4 <_puts_r+0x78>
   10590:	4529                	li	a0,10
   10592:	70a6                	ld	ra,104(sp)
   10594:	7406                	ld	s0,96(sp)
   10596:	64e6                	ld	s1,88(sp)
   10598:	6165                	addi	sp,sp,112
   1059a:	8082                	ret
   1059c:	03271793          	slli	a5,a4,0x32
   105a0:	fe07d3e3          	bgez	a5,10586 <_puts_r+0x5a>
   105a4:	557d                	li	a0,-1
   105a6:	b7f5                	j	10592 <_puts_r+0x66>
   105a8:	8522                	mv	a0,s0
   105aa:	e42e                	sd	a1,8(sp)
   105ac:	ebbff0ef          	jal	10466 <__sinit>
   105b0:	65a2                	ld	a1,8(sp)
   105b2:	bf4d                	j	10564 <_puts_r+0x38>

00000000000105b4 <puts>:
   105b4:	85aa                	mv	a1,a0
   105b6:	1881b503          	ld	a0,392(gp) # 139a0 <_impure_ptr>
   105ba:	bf8d                	j	1052c <_puts_r>

00000000000105bc <__sread>:
   105bc:	1141                	addi	sp,sp,-16
   105be:	e022                	sd	s0,0(sp)
   105c0:	842e                	mv	s0,a1
   105c2:	01259583          	lh	a1,18(a1)
   105c6:	e406                	sd	ra,8(sp)
   105c8:	1b2000ef          	jal	1077a <_read_r>
   105cc:	00054963          	bltz	a0,105de <__sread+0x22>
   105d0:	685c                	ld	a5,144(s0)
   105d2:	60a2                	ld	ra,8(sp)
   105d4:	97aa                	add	a5,a5,a0
   105d6:	e85c                	sd	a5,144(s0)
   105d8:	6402                	ld	s0,0(sp)
   105da:	0141                	addi	sp,sp,16
   105dc:	8082                	ret
   105de:	01045783          	lhu	a5,16(s0)
   105e2:	777d                	lui	a4,0xfffff
   105e4:	177d                	addi	a4,a4,-1 # ffffffffffffefff <__BSS_END__+0xfffffffffffeb087>
   105e6:	8ff9                	and	a5,a5,a4
   105e8:	60a2                	ld	ra,8(sp)
   105ea:	00f41823          	sh	a5,16(s0)
   105ee:	6402                	ld	s0,0(sp)
   105f0:	0141                	addi	sp,sp,16
   105f2:	8082                	ret

00000000000105f4 <__seofread>:
   105f4:	4501                	li	a0,0
   105f6:	8082                	ret

00000000000105f8 <__swrite>:
   105f8:	01059783          	lh	a5,16(a1)
   105fc:	7179                	addi	sp,sp,-48
   105fe:	f022                	sd	s0,32(sp)
   10600:	ec26                	sd	s1,24(sp)
   10602:	e84a                	sd	s2,16(sp)
   10604:	e44e                	sd	s3,8(sp)
   10606:	f406                	sd	ra,40(sp)
   10608:	1007f713          	andi	a4,a5,256
   1060c:	842e                	mv	s0,a1
   1060e:	8932                	mv	s2,a2
   10610:	89b6                	mv	s3,a3
   10612:	84aa                	mv	s1,a0
   10614:	e315                	bnez	a4,10638 <__swrite+0x40>
   10616:	777d                	lui	a4,0xfffff
   10618:	177d                	addi	a4,a4,-1 # ffffffffffffefff <__BSS_END__+0xfffffffffffeb087>
   1061a:	8ff9                	and	a5,a5,a4
   1061c:	01241583          	lh	a1,18(s0)
   10620:	00f41823          	sh	a5,16(s0)
   10624:	7402                	ld	s0,32(sp)
   10626:	70a2                	ld	ra,40(sp)
   10628:	86ce                	mv	a3,s3
   1062a:	864a                	mv	a2,s2
   1062c:	69a2                	ld	s3,8(sp)
   1062e:	6942                	ld	s2,16(sp)
   10630:	8526                	mv	a0,s1
   10632:	64e2                	ld	s1,24(sp)
   10634:	6145                	addi	sp,sp,48
   10636:	aaad                	j	107b0 <_write_r>
   10638:	01259583          	lh	a1,18(a1)
   1063c:	4689                	li	a3,2
   1063e:	4601                	li	a2,0
   10640:	104000ef          	jal	10744 <_lseek_r>
   10644:	01041783          	lh	a5,16(s0)
   10648:	b7f9                	j	10616 <__swrite+0x1e>

000000000001064a <__sseek>:
   1064a:	1141                	addi	sp,sp,-16
   1064c:	e022                	sd	s0,0(sp)
   1064e:	842e                	mv	s0,a1
   10650:	01259583          	lh	a1,18(a1)
   10654:	e406                	sd	ra,8(sp)
   10656:	0ee000ef          	jal	10744 <_lseek_r>
   1065a:	577d                	li	a4,-1
   1065c:	01041783          	lh	a5,16(s0)
   10660:	00e50b63          	beq	a0,a4,10676 <__sseek+0x2c>
   10664:	6705                	lui	a4,0x1
   10666:	8fd9                	or	a5,a5,a4
   10668:	60a2                	ld	ra,8(sp)
   1066a:	e848                	sd	a0,144(s0)
   1066c:	00f41823          	sh	a5,16(s0)
   10670:	6402                	ld	s0,0(sp)
   10672:	0141                	addi	sp,sp,16
   10674:	8082                	ret
   10676:	777d                	lui	a4,0xfffff
   10678:	177d                	addi	a4,a4,-1 # ffffffffffffefff <__BSS_END__+0xfffffffffffeb087>
   1067a:	8ff9                	and	a5,a5,a4
   1067c:	60a2                	ld	ra,8(sp)
   1067e:	00f41823          	sh	a5,16(s0)
   10682:	6402                	ld	s0,0(sp)
   10684:	0141                	addi	sp,sp,16
   10686:	8082                	ret

0000000000010688 <__sclose>:
   10688:	01259583          	lh	a1,18(a1)
   1068c:	a009                	j	1068e <_close_r>

000000000001068e <_close_r>:
   1068e:	1141                	addi	sp,sp,-16
   10690:	e022                	sd	s0,0(sp)
   10692:	842a                	mv	s0,a0
   10694:	852e                	mv	a0,a1
   10696:	1a01a423          	sw	zero,424(gp) # 139c0 <errno>
   1069a:	e406                	sd	ra,8(sp)
   1069c:	5c9010ef          	jal	12464 <_close>
   106a0:	57fd                	li	a5,-1
   106a2:	00f50663          	beq	a0,a5,106ae <_close_r+0x20>
   106a6:	60a2                	ld	ra,8(sp)
   106a8:	6402                	ld	s0,0(sp)
   106aa:	0141                	addi	sp,sp,16
   106ac:	8082                	ret
   106ae:	1a81a783          	lw	a5,424(gp) # 139c0 <errno>
   106b2:	dbf5                	beqz	a5,106a6 <_close_r+0x18>
   106b4:	60a2                	ld	ra,8(sp)
   106b6:	c01c                	sw	a5,0(s0)
   106b8:	6402                	ld	s0,0(sp)
   106ba:	0141                	addi	sp,sp,16
   106bc:	8082                	ret

00000000000106be <_reclaim_reent>:
   106be:	1881b783          	ld	a5,392(gp) # 139a0 <_impure_ptr>
   106c2:	08a78063          	beq	a5,a0,10742 <_reclaim_reent+0x84>
   106c6:	752c                	ld	a1,104(a0)
   106c8:	7179                	addi	sp,sp,-48
   106ca:	ec26                	sd	s1,24(sp)
   106cc:	f406                	sd	ra,40(sp)
   106ce:	f022                	sd	s0,32(sp)
   106d0:	84aa                	mv	s1,a0
   106d2:	c98d                	beqz	a1,10704 <_reclaim_reent+0x46>
   106d4:	e84a                	sd	s2,16(sp)
   106d6:	e44e                	sd	s3,8(sp)
   106d8:	4901                	li	s2,0
   106da:	20000993          	li	s3,512
   106de:	012587b3          	add	a5,a1,s2
   106e2:	6380                	ld	s0,0(a5)
   106e4:	c801                	beqz	s0,106f4 <_reclaim_reent+0x36>
   106e6:	85a2                	mv	a1,s0
   106e8:	6000                	ld	s0,0(s0)
   106ea:	8526                	mv	a0,s1
   106ec:	454000ef          	jal	10b40 <_free_r>
   106f0:	f87d                	bnez	s0,106e6 <_reclaim_reent+0x28>
   106f2:	74ac                	ld	a1,104(s1)
   106f4:	0921                	addi	s2,s2,8
   106f6:	ff3914e3          	bne	s2,s3,106de <_reclaim_reent+0x20>
   106fa:	8526                	mv	a0,s1
   106fc:	444000ef          	jal	10b40 <_free_r>
   10700:	6942                	ld	s2,16(sp)
   10702:	69a2                	ld	s3,8(sp)
   10704:	68ac                	ld	a1,80(s1)
   10706:	c581                	beqz	a1,1070e <_reclaim_reent+0x50>
   10708:	8526                	mv	a0,s1
   1070a:	436000ef          	jal	10b40 <_free_r>
   1070e:	70a0                	ld	s0,96(s1)
   10710:	c419                	beqz	s0,1071e <_reclaim_reent+0x60>
   10712:	85a2                	mv	a1,s0
   10714:	6000                	ld	s0,0(s0)
   10716:	8526                	mv	a0,s1
   10718:	428000ef          	jal	10b40 <_free_r>
   1071c:	f87d                	bnez	s0,10712 <_reclaim_reent+0x54>
   1071e:	7cac                	ld	a1,120(s1)
   10720:	c581                	beqz	a1,10728 <_reclaim_reent+0x6a>
   10722:	8526                	mv	a0,s1
   10724:	41c000ef          	jal	10b40 <_free_r>
   10728:	64bc                	ld	a5,72(s1)
   1072a:	c799                	beqz	a5,10738 <_reclaim_reent+0x7a>
   1072c:	7402                	ld	s0,32(sp)
   1072e:	70a2                	ld	ra,40(sp)
   10730:	8526                	mv	a0,s1
   10732:	64e2                	ld	s1,24(sp)
   10734:	6145                	addi	sp,sp,48
   10736:	8782                	jr	a5
   10738:	70a2                	ld	ra,40(sp)
   1073a:	7402                	ld	s0,32(sp)
   1073c:	64e2                	ld	s1,24(sp)
   1073e:	6145                	addi	sp,sp,48
   10740:	8082                	ret
   10742:	8082                	ret

0000000000010744 <_lseek_r>:
   10744:	1141                	addi	sp,sp,-16
   10746:	872e                	mv	a4,a1
   10748:	e022                	sd	s0,0(sp)
   1074a:	85b2                	mv	a1,a2
   1074c:	842a                	mv	s0,a0
   1074e:	8636                	mv	a2,a3
   10750:	853a                	mv	a0,a4
   10752:	1a01a423          	sw	zero,424(gp) # 139c0 <errno>
   10756:	e406                	sd	ra,8(sp)
   10758:	5c1010ef          	jal	12518 <_lseek>
   1075c:	57fd                	li	a5,-1
   1075e:	00f50663          	beq	a0,a5,1076a <_lseek_r+0x26>
   10762:	60a2                	ld	ra,8(sp)
   10764:	6402                	ld	s0,0(sp)
   10766:	0141                	addi	sp,sp,16
   10768:	8082                	ret
   1076a:	1a81a783          	lw	a5,424(gp) # 139c0 <errno>
   1076e:	dbf5                	beqz	a5,10762 <_lseek_r+0x1e>
   10770:	60a2                	ld	ra,8(sp)
   10772:	c01c                	sw	a5,0(s0)
   10774:	6402                	ld	s0,0(sp)
   10776:	0141                	addi	sp,sp,16
   10778:	8082                	ret

000000000001077a <_read_r>:
   1077a:	1141                	addi	sp,sp,-16
   1077c:	872e                	mv	a4,a1
   1077e:	e022                	sd	s0,0(sp)
   10780:	85b2                	mv	a1,a2
   10782:	842a                	mv	s0,a0
   10784:	8636                	mv	a2,a3
   10786:	853a                	mv	a0,a4
   10788:	1a01a423          	sw	zero,424(gp) # 139c0 <errno>
   1078c:	e406                	sd	ra,8(sp)
   1078e:	5b7010ef          	jal	12544 <_read>
   10792:	57fd                	li	a5,-1
   10794:	00f50663          	beq	a0,a5,107a0 <_read_r+0x26>
   10798:	60a2                	ld	ra,8(sp)
   1079a:	6402                	ld	s0,0(sp)
   1079c:	0141                	addi	sp,sp,16
   1079e:	8082                	ret
   107a0:	1a81a783          	lw	a5,424(gp) # 139c0 <errno>
   107a4:	dbf5                	beqz	a5,10798 <_read_r+0x1e>
   107a6:	60a2                	ld	ra,8(sp)
   107a8:	c01c                	sw	a5,0(s0)
   107aa:	6402                	ld	s0,0(sp)
   107ac:	0141                	addi	sp,sp,16
   107ae:	8082                	ret

00000000000107b0 <_write_r>:
   107b0:	1141                	addi	sp,sp,-16
   107b2:	872e                	mv	a4,a1
   107b4:	e022                	sd	s0,0(sp)
   107b6:	85b2                	mv	a1,a2
   107b8:	842a                	mv	s0,a0
   107ba:	8636                	mv	a2,a3
   107bc:	853a                	mv	a0,a4
   107be:	1a01a423          	sw	zero,424(gp) # 139c0 <errno>
   107c2:	e406                	sd	ra,8(sp)
   107c4:	5fd010ef          	jal	125c0 <_write>
   107c8:	57fd                	li	a5,-1
   107ca:	00f50663          	beq	a0,a5,107d6 <_write_r+0x26>
   107ce:	60a2                	ld	ra,8(sp)
   107d0:	6402                	ld	s0,0(sp)
   107d2:	0141                	addi	sp,sp,16
   107d4:	8082                	ret
   107d6:	1a81a783          	lw	a5,424(gp) # 139c0 <errno>
   107da:	dbf5                	beqz	a5,107ce <_write_r+0x1e>
   107dc:	60a2                	ld	ra,8(sp)
   107de:	c01c                	sw	a5,0(s0)
   107e0:	6402                	ld	s0,0(sp)
   107e2:	0141                	addi	sp,sp,16
   107e4:	8082                	ret

00000000000107e6 <__libc_init_array>:
   107e6:	1101                	addi	sp,sp,-32
   107e8:	e822                	sd	s0,16(sp)
   107ea:	e04a                	sd	s2,0(sp)
   107ec:	00003797          	auipc	a5,0x3
   107f0:	81478793          	addi	a5,a5,-2028 # 13000 <__init_array_start>
   107f4:	00003417          	auipc	s0,0x3
   107f8:	80c40413          	addi	s0,s0,-2036 # 13000 <__init_array_start>
   107fc:	ec06                	sd	ra,24(sp)
   107fe:	e426                	sd	s1,8(sp)
   10800:	40878933          	sub	s2,a5,s0
   10804:	00878b63          	beq	a5,s0,1081a <__libc_init_array+0x34>
   10808:	40395913          	srai	s2,s2,0x3
   1080c:	4481                	li	s1,0
   1080e:	601c                	ld	a5,0(s0)
   10810:	0485                	addi	s1,s1,1
   10812:	0421                	addi	s0,s0,8
   10814:	9782                	jalr	a5
   10816:	ff24ece3          	bltu	s1,s2,1080e <__libc_init_array+0x28>
   1081a:	00002797          	auipc	a5,0x2
   1081e:	7f678793          	addi	a5,a5,2038 # 13010 <__do_global_dtors_aux_fini_array_entry>
   10822:	00002417          	auipc	s0,0x2
   10826:	7de40413          	addi	s0,s0,2014 # 13000 <__init_array_start>
   1082a:	40878933          	sub	s2,a5,s0
   1082e:	40395913          	srai	s2,s2,0x3
   10832:	00878963          	beq	a5,s0,10844 <__libc_init_array+0x5e>
   10836:	4481                	li	s1,0
   10838:	601c                	ld	a5,0(s0)
   1083a:	0485                	addi	s1,s1,1
   1083c:	0421                	addi	s0,s0,8
   1083e:	9782                	jalr	a5
   10840:	ff24ece3          	bltu	s1,s2,10838 <__libc_init_array+0x52>
   10844:	60e2                	ld	ra,24(sp)
   10846:	6442                	ld	s0,16(sp)
   10848:	64a2                	ld	s1,8(sp)
   1084a:	6902                	ld	s2,0(sp)
   1084c:	6105                	addi	sp,sp,32
   1084e:	8082                	ret

0000000000010850 <memset>:
   10850:	433d                	li	t1,15
   10852:	872a                	mv	a4,a0
   10854:	02c37163          	bgeu	t1,a2,10876 <memset+0x26>
   10858:	00f77793          	andi	a5,a4,15
   1085c:	e3c1                	bnez	a5,108dc <memset+0x8c>
   1085e:	e1bd                	bnez	a1,108c4 <memset+0x74>
   10860:	ff067693          	andi	a3,a2,-16
   10864:	8a3d                	andi	a2,a2,15
   10866:	96ba                	add	a3,a3,a4
   10868:	e30c                	sd	a1,0(a4)
   1086a:	e70c                	sd	a1,8(a4)
   1086c:	0741                	addi	a4,a4,16
   1086e:	fed76de3          	bltu	a4,a3,10868 <memset+0x18>
   10872:	e211                	bnez	a2,10876 <memset+0x26>
   10874:	8082                	ret
   10876:	40c306b3          	sub	a3,t1,a2
   1087a:	068a                	slli	a3,a3,0x2
   1087c:	00000297          	auipc	t0,0x0
   10880:	9696                	add	a3,a3,t0
   10882:	00a68067          	jr	10(a3)
   10886:	00b70723          	sb	a1,14(a4)
   1088a:	00b706a3          	sb	a1,13(a4)
   1088e:	00b70623          	sb	a1,12(a4)
   10892:	00b705a3          	sb	a1,11(a4)
   10896:	00b70523          	sb	a1,10(a4)
   1089a:	00b704a3          	sb	a1,9(a4)
   1089e:	00b70423          	sb	a1,8(a4)
   108a2:	00b703a3          	sb	a1,7(a4)
   108a6:	00b70323          	sb	a1,6(a4)
   108aa:	00b702a3          	sb	a1,5(a4)
   108ae:	00b70223          	sb	a1,4(a4)
   108b2:	00b701a3          	sb	a1,3(a4)
   108b6:	00b70123          	sb	a1,2(a4)
   108ba:	00b700a3          	sb	a1,1(a4)
   108be:	00b70023          	sb	a1,0(a4)
   108c2:	8082                	ret
   108c4:	0ff5f593          	zext.b	a1,a1
   108c8:	00859693          	slli	a3,a1,0x8
   108cc:	8dd5                	or	a1,a1,a3
   108ce:	01059693          	slli	a3,a1,0x10
   108d2:	8dd5                	or	a1,a1,a3
   108d4:	02059693          	slli	a3,a1,0x20
   108d8:	8dd5                	or	a1,a1,a3
   108da:	b759                	j	10860 <memset+0x10>
   108dc:	00279693          	slli	a3,a5,0x2
   108e0:	00000297          	auipc	t0,0x0
   108e4:	9696                	add	a3,a3,t0
   108e6:	8286                	mv	t0,ra
   108e8:	fa2680e7          	jalr	-94(a3)
   108ec:	8096                	mv	ra,t0
   108ee:	17c1                	addi	a5,a5,-16
   108f0:	8f1d                	sub	a4,a4,a5
   108f2:	963e                	add	a2,a2,a5
   108f4:	f8c371e3          	bgeu	t1,a2,10876 <memset+0x26>
   108f8:	b79d                	j	1085e <memset+0xe>

00000000000108fa <strlen>:
   108fa:	00757793          	andi	a5,a0,7
   108fe:	872a                	mv	a4,a0
   10900:	efb1                	bnez	a5,1095c <strlen+0x62>
   10902:	7f7f87b7          	lui	a5,0x7f7f8
   10906:	f7f78793          	addi	a5,a5,-129 # 7f7f7f7f <__BSS_END__+0x7f7e4007>
   1090a:	02079693          	slli	a3,a5,0x20
   1090e:	96be                	add	a3,a3,a5
   10910:	55fd                	li	a1,-1
   10912:	6310                	ld	a2,0(a4)
   10914:	0721                	addi	a4,a4,8
   10916:	00d677b3          	and	a5,a2,a3
   1091a:	97b6                	add	a5,a5,a3
   1091c:	8fd1                	or	a5,a5,a2
   1091e:	8fd5                	or	a5,a5,a3
   10920:	feb789e3          	beq	a5,a1,10912 <strlen+0x18>
   10924:	ff874683          	lbu	a3,-8(a4)
   10928:	40a707b3          	sub	a5,a4,a0
   1092c:	c6a9                	beqz	a3,10976 <strlen+0x7c>
   1092e:	ff974683          	lbu	a3,-7(a4)
   10932:	ce9d                	beqz	a3,10970 <strlen+0x76>
   10934:	ffa74683          	lbu	a3,-6(a4)
   10938:	c6a9                	beqz	a3,10982 <strlen+0x88>
   1093a:	ffb74683          	lbu	a3,-5(a4)
   1093e:	ce9d                	beqz	a3,1097c <strlen+0x82>
   10940:	ffc74683          	lbu	a3,-4(a4)
   10944:	c2b1                	beqz	a3,10988 <strlen+0x8e>
   10946:	ffd74683          	lbu	a3,-3(a4)
   1094a:	c2b1                	beqz	a3,1098e <strlen+0x94>
   1094c:	ffe74503          	lbu	a0,-2(a4)
   10950:	00a03533          	snez	a0,a0
   10954:	953e                	add	a0,a0,a5
   10956:	1579                	addi	a0,a0,-2
   10958:	8082                	ret
   1095a:	d6c5                	beqz	a3,10902 <strlen+0x8>
   1095c:	00074783          	lbu	a5,0(a4)
   10960:	0705                	addi	a4,a4,1
   10962:	00777693          	andi	a3,a4,7
   10966:	fbf5                	bnez	a5,1095a <strlen+0x60>
   10968:	8f09                	sub	a4,a4,a0
   1096a:	fff70513          	addi	a0,a4,-1
   1096e:	8082                	ret
   10970:	ff978513          	addi	a0,a5,-7
   10974:	8082                	ret
   10976:	ff878513          	addi	a0,a5,-8
   1097a:	8082                	ret
   1097c:	ffb78513          	addi	a0,a5,-5
   10980:	8082                	ret
   10982:	ffa78513          	addi	a0,a5,-6
   10986:	8082                	ret
   10988:	ffc78513          	addi	a0,a5,-4
   1098c:	8082                	ret
   1098e:	ffd78513          	addi	a0,a5,-3
   10992:	8082                	ret

0000000000010994 <__call_exitprocs>:
   10994:	715d                	addi	sp,sp,-80
   10996:	f052                	sd	s4,32(sp)
   10998:	1b018a13          	addi	s4,gp,432 # 139c8 <__atexit>
   1099c:	f84a                	sd	s2,48(sp)
   1099e:	000a3903          	ld	s2,0(s4)
   109a2:	e486                	sd	ra,72(sp)
   109a4:	04090663          	beqz	s2,109f0 <__call_exitprocs+0x5c>
   109a8:	f44e                	sd	s3,40(sp)
   109aa:	ec56                	sd	s5,24(sp)
   109ac:	e85a                	sd	s6,16(sp)
   109ae:	e45e                	sd	s7,8(sp)
   109b0:	e0a2                	sd	s0,64(sp)
   109b2:	fc26                	sd	s1,56(sp)
   109b4:	e062                	sd	s8,0(sp)
   109b6:	8b2a                	mv	s6,a0
   109b8:	8bae                	mv	s7,a1
   109ba:	59fd                	li	s3,-1
   109bc:	4a85                	li	s5,1
   109be:	00892483          	lw	s1,8(s2)
   109c2:	fff4841b          	addiw	s0,s1,-1
   109c6:	00044e63          	bltz	s0,109e2 <__call_exitprocs+0x4e>
   109ca:	048e                	slli	s1,s1,0x3
   109cc:	94ca                	add	s1,s1,s2
   109ce:	020b8663          	beqz	s7,109fa <__call_exitprocs+0x66>
   109d2:	2084b783          	ld	a5,520(s1)
   109d6:	03778263          	beq	a5,s7,109fa <__call_exitprocs+0x66>
   109da:	347d                	addiw	s0,s0,-1
   109dc:	14e1                	addi	s1,s1,-8
   109de:	ff341ae3          	bne	s0,s3,109d2 <__call_exitprocs+0x3e>
   109e2:	6406                	ld	s0,64(sp)
   109e4:	74e2                	ld	s1,56(sp)
   109e6:	79a2                	ld	s3,40(sp)
   109e8:	6ae2                	ld	s5,24(sp)
   109ea:	6b42                	ld	s6,16(sp)
   109ec:	6ba2                	ld	s7,8(sp)
   109ee:	6c02                	ld	s8,0(sp)
   109f0:	60a6                	ld	ra,72(sp)
   109f2:	7942                	ld	s2,48(sp)
   109f4:	7a02                	ld	s4,32(sp)
   109f6:	6161                	addi	sp,sp,80
   109f8:	8082                	ret
   109fa:	00892783          	lw	a5,8(s2)
   109fe:	6494                	ld	a3,8(s1)
   10a00:	37fd                	addiw	a5,a5,-1
   10a02:	04878c63          	beq	a5,s0,10a5a <__call_exitprocs+0xc6>
   10a06:	0004b423          	sd	zero,8(s1)
   10a0a:	c295                	beqz	a3,10a2e <__call_exitprocs+0x9a>
   10a0c:	31092783          	lw	a5,784(s2)
   10a10:	008a973b          	sllw	a4,s5,s0
   10a14:	00892c03          	lw	s8,8(s2)
   10a18:	8ff9                	and	a5,a5,a4
   10a1a:	ef99                	bnez	a5,10a38 <__call_exitprocs+0xa4>
   10a1c:	9682                	jalr	a3
   10a1e:	00892703          	lw	a4,8(s2)
   10a22:	000a3783          	ld	a5,0(s4)
   10a26:	03871763          	bne	a4,s8,10a54 <__call_exitprocs+0xc0>
   10a2a:	03279563          	bne	a5,s2,10a54 <__call_exitprocs+0xc0>
   10a2e:	347d                	addiw	s0,s0,-1
   10a30:	14e1                	addi	s1,s1,-8
   10a32:	f9341ee3          	bne	s0,s3,109ce <__call_exitprocs+0x3a>
   10a36:	b775                	j	109e2 <__call_exitprocs+0x4e>
   10a38:	31492783          	lw	a5,788(s2)
   10a3c:	1084b583          	ld	a1,264(s1)
   10a40:	8f7d                	and	a4,a4,a5
   10a42:	ef19                	bnez	a4,10a60 <__call_exitprocs+0xcc>
   10a44:	855a                	mv	a0,s6
   10a46:	9682                	jalr	a3
   10a48:	00892703          	lw	a4,8(s2)
   10a4c:	000a3783          	ld	a5,0(s4)
   10a50:	fd870de3          	beq	a4,s8,10a2a <__call_exitprocs+0x96>
   10a54:	d7d9                	beqz	a5,109e2 <__call_exitprocs+0x4e>
   10a56:	893e                	mv	s2,a5
   10a58:	b79d                	j	109be <__call_exitprocs+0x2a>
   10a5a:	00892423          	sw	s0,8(s2)
   10a5e:	b775                	j	10a0a <__call_exitprocs+0x76>
   10a60:	852e                	mv	a0,a1
   10a62:	9682                	jalr	a3
   10a64:	bf6d                	j	10a1e <__call_exitprocs+0x8a>

0000000000010a66 <atexit>:
   10a66:	85aa                	mv	a1,a0
   10a68:	4681                	li	a3,0
   10a6a:	4601                	li	a2,0
   10a6c:	4501                	li	a0,0
   10a6e:	3700106f          	j	11dde <__register_exitproc>

0000000000010a72 <_malloc_trim_r>:
   10a72:	7179                	addi	sp,sp,-48
   10a74:	f022                	sd	s0,32(sp)
   10a76:	ec26                	sd	s1,24(sp)
   10a78:	e84a                	sd	s2,16(sp)
   10a7a:	e44e                	sd	s3,8(sp)
   10a7c:	e052                	sd	s4,0(sp)
   10a7e:	89ae                	mv	s3,a1
   10a80:	f406                	sd	ra,40(sp)
   10a82:	892a                	mv	s2,a0
   10a84:	00002a17          	auipc	s4,0x2
   10a88:	704a0a13          	addi	s4,s4,1796 # 13188 <__malloc_av_>
   10a8c:	12b000ef          	jal	113b6 <__malloc_lock>
   10a90:	010a3783          	ld	a5,16(s4)
   10a94:	6405                	lui	s0,0x1
   10a96:	fdf40413          	addi	s0,s0,-33 # fdf <exit-0xf141>
   10a9a:	6784                	ld	s1,8(a5)
   10a9c:	6785                	lui	a5,0x1
   10a9e:	98f1                	andi	s1,s1,-4
   10aa0:	9426                	add	s0,s0,s1
   10aa2:	41340433          	sub	s0,s0,s3
   10aa6:	8031                	srli	s0,s0,0xc
   10aa8:	147d                	addi	s0,s0,-1
   10aaa:	0432                	slli	s0,s0,0xc
   10aac:	00f44b63          	blt	s0,a5,10ac2 <_malloc_trim_r+0x50>
   10ab0:	4581                	li	a1,0
   10ab2:	854a                	mv	a0,s2
   10ab4:	0f0010ef          	jal	11ba4 <_sbrk_r>
   10ab8:	010a3783          	ld	a5,16(s4)
   10abc:	97a6                	add	a5,a5,s1
   10abe:	00f50e63          	beq	a0,a5,10ada <_malloc_trim_r+0x68>
   10ac2:	854a                	mv	a0,s2
   10ac4:	0f5000ef          	jal	113b8 <__malloc_unlock>
   10ac8:	70a2                	ld	ra,40(sp)
   10aca:	7402                	ld	s0,32(sp)
   10acc:	64e2                	ld	s1,24(sp)
   10ace:	6942                	ld	s2,16(sp)
   10ad0:	69a2                	ld	s3,8(sp)
   10ad2:	6a02                	ld	s4,0(sp)
   10ad4:	4501                	li	a0,0
   10ad6:	6145                	addi	sp,sp,48
   10ad8:	8082                	ret
   10ada:	408005b3          	neg	a1,s0
   10ade:	854a                	mv	a0,s2
   10ae0:	0c4010ef          	jal	11ba4 <_sbrk_r>
   10ae4:	57fd                	li	a5,-1
   10ae6:	02f50963          	beq	a0,a5,10b18 <_malloc_trim_r+0xa6>
   10aea:	010a3703          	ld	a4,16(s4)
   10aee:	4201a783          	lw	a5,1056(gp) # 13c38 <__malloc_current_mallinfo>
   10af2:	8c81                	sub	s1,s1,s0
   10af4:	0014e493          	ori	s1,s1,1
   10af8:	e704                	sd	s1,8(a4)
   10afa:	854a                	mv	a0,s2
   10afc:	9f81                	subw	a5,a5,s0
   10afe:	42f1a023          	sw	a5,1056(gp) # 13c38 <__malloc_current_mallinfo>
   10b02:	0b7000ef          	jal	113b8 <__malloc_unlock>
   10b06:	70a2                	ld	ra,40(sp)
   10b08:	7402                	ld	s0,32(sp)
   10b0a:	64e2                	ld	s1,24(sp)
   10b0c:	6942                	ld	s2,16(sp)
   10b0e:	69a2                	ld	s3,8(sp)
   10b10:	6a02                	ld	s4,0(sp)
   10b12:	4505                	li	a0,1
   10b14:	6145                	addi	sp,sp,48
   10b16:	8082                	ret
   10b18:	4581                	li	a1,0
   10b1a:	854a                	mv	a0,s2
   10b1c:	088010ef          	jal	11ba4 <_sbrk_r>
   10b20:	010a3703          	ld	a4,16(s4)
   10b24:	46fd                	li	a3,31
   10b26:	40e507b3          	sub	a5,a0,a4
   10b2a:	f8f6dce3          	bge	a3,a5,10ac2 <_malloc_trim_r+0x50>
   10b2e:	1901b683          	ld	a3,400(gp) # 139a8 <__malloc_sbrk_base>
   10b32:	0017e793          	ori	a5,a5,1
   10b36:	e71c                	sd	a5,8(a4)
   10b38:	8d15                	sub	a0,a0,a3
   10b3a:	42a1a023          	sw	a0,1056(gp) # 13c38 <__malloc_current_mallinfo>
   10b3e:	b751                	j	10ac2 <_malloc_trim_r+0x50>

0000000000010b40 <_free_r>:
   10b40:	c1fd                	beqz	a1,10c26 <_free_r+0xe6>
   10b42:	1101                	addi	sp,sp,-32
   10b44:	e822                	sd	s0,16(sp)
   10b46:	e426                	sd	s1,8(sp)
   10b48:	842e                	mv	s0,a1
   10b4a:	84aa                	mv	s1,a0
   10b4c:	ec06                	sd	ra,24(sp)
   10b4e:	069000ef          	jal	113b6 <__malloc_lock>
   10b52:	ff843583          	ld	a1,-8(s0)
   10b56:	ff040713          	addi	a4,s0,-16
   10b5a:	00002817          	auipc	a6,0x2
   10b5e:	62e80813          	addi	a6,a6,1582 # 13188 <__malloc_av_>
   10b62:	ffe5f793          	andi	a5,a1,-2
   10b66:	00f70633          	add	a2,a4,a5
   10b6a:	6614                	ld	a3,8(a2)
   10b6c:	01083503          	ld	a0,16(a6)
   10b70:	0015f893          	andi	a7,a1,1
   10b74:	9af1                	andi	a3,a3,-4
   10b76:	12c50463          	beq	a0,a2,10c9e <_free_r+0x15e>
   10b7a:	e614                	sd	a3,8(a2)
   10b7c:	00d60533          	add	a0,a2,a3
   10b80:	6508                	ld	a0,8(a0)
   10b82:	8905                	andi	a0,a0,1
   10b84:	06089e63          	bnez	a7,10c00 <_free_r+0xc0>
   10b88:	ff043303          	ld	t1,-16(s0)
   10b8c:	00002897          	auipc	a7,0x2
   10b90:	60c88893          	addi	a7,a7,1548 # 13198 <__malloc_av_+0x10>
   10b94:	40670733          	sub	a4,a4,t1
   10b98:	6b0c                	ld	a1,16(a4)
   10b9a:	979a                	add	a5,a5,t1
   10b9c:	0f158563          	beq	a1,a7,10c86 <_free_r+0x146>
   10ba0:	01873303          	ld	t1,24(a4)
   10ba4:	0065bc23          	sd	t1,24(a1)
   10ba8:	00b33823          	sd	a1,16(t1) # 101e6 <main+0x6>
   10bac:	12050363          	beqz	a0,10cd2 <_free_r+0x192>
   10bb0:	0017e693          	ori	a3,a5,1
   10bb4:	e714                	sd	a3,8(a4)
   10bb6:	e21c                	sd	a5,0(a2)
   10bb8:	1ff00693          	li	a3,511
   10bbc:	06f6ef63          	bltu	a3,a5,10c3a <_free_r+0xfa>
   10bc0:	838d                	srli	a5,a5,0x3
   10bc2:	2781                	sext.w	a5,a5
   10bc4:	0017869b          	addiw	a3,a5,1 # 1001 <exit-0xf11f>
   10bc8:	0016969b          	slliw	a3,a3,0x1
   10bcc:	068e                	slli	a3,a3,0x3
   10bce:	00883503          	ld	a0,8(a6)
   10bd2:	96c2                	add	a3,a3,a6
   10bd4:	628c                	ld	a1,0(a3)
   10bd6:	4605                	li	a2,1
   10bd8:	4027d79b          	sraiw	a5,a5,0x2
   10bdc:	00f617b3          	sll	a5,a2,a5
   10be0:	8fc9                	or	a5,a5,a0
   10be2:	ff068613          	addi	a2,a3,-16
   10be6:	eb0c                	sd	a1,16(a4)
   10be8:	ef10                	sd	a2,24(a4)
   10bea:	00f83423          	sd	a5,8(a6)
   10bee:	e298                	sd	a4,0(a3)
   10bf0:	ed98                	sd	a4,24(a1)
   10bf2:	6442                	ld	s0,16(sp)
   10bf4:	60e2                	ld	ra,24(sp)
   10bf6:	8526                	mv	a0,s1
   10bf8:	64a2                	ld	s1,8(sp)
   10bfa:	6105                	addi	sp,sp,32
   10bfc:	7bc0006f          	j	113b8 <__malloc_unlock>
   10c00:	e505                	bnez	a0,10c28 <_free_r+0xe8>
   10c02:	97b6                	add	a5,a5,a3
   10c04:	00002897          	auipc	a7,0x2
   10c08:	59488893          	addi	a7,a7,1428 # 13198 <__malloc_av_+0x10>
   10c0c:	6a14                	ld	a3,16(a2)
   10c0e:	0017e513          	ori	a0,a5,1
   10c12:	00f705b3          	add	a1,a4,a5
   10c16:	0f168e63          	beq	a3,a7,10d12 <_free_r+0x1d2>
   10c1a:	6e10                	ld	a2,24(a2)
   10c1c:	ee90                	sd	a2,24(a3)
   10c1e:	ea14                	sd	a3,16(a2)
   10c20:	e708                	sd	a0,8(a4)
   10c22:	e19c                	sd	a5,0(a1)
   10c24:	bf51                	j	10bb8 <_free_r+0x78>
   10c26:	8082                	ret
   10c28:	0015e593          	ori	a1,a1,1
   10c2c:	feb43c23          	sd	a1,-8(s0)
   10c30:	e21c                	sd	a5,0(a2)
   10c32:	1ff00693          	li	a3,511
   10c36:	f8f6f5e3          	bgeu	a3,a5,10bc0 <_free_r+0x80>
   10c3a:	0097d693          	srli	a3,a5,0x9
   10c3e:	4611                	li	a2,4
   10c40:	08d66b63          	bltu	a2,a3,10cd6 <_free_r+0x196>
   10c44:	0067d693          	srli	a3,a5,0x6
   10c48:	0396859b          	addiw	a1,a3,57
   10c4c:	0015959b          	slliw	a1,a1,0x1
   10c50:	058e                	slli	a1,a1,0x3
   10c52:	0386861b          	addiw	a2,a3,56
   10c56:	95c2                	add	a1,a1,a6
   10c58:	6194                	ld	a3,0(a1)
   10c5a:	15c1                	addi	a1,a1,-16
   10c5c:	00d59663          	bne	a1,a3,10c68 <_free_r+0x128>
   10c60:	a0e1                	j	10d28 <_free_r+0x1e8>
   10c62:	6a94                	ld	a3,16(a3)
   10c64:	00d58663          	beq	a1,a3,10c70 <_free_r+0x130>
   10c68:	6690                	ld	a2,8(a3)
   10c6a:	9a71                	andi	a2,a2,-4
   10c6c:	fec7ebe3          	bltu	a5,a2,10c62 <_free_r+0x122>
   10c70:	6e8c                	ld	a1,24(a3)
   10c72:	ef0c                	sd	a1,24(a4)
   10c74:	eb14                	sd	a3,16(a4)
   10c76:	6442                	ld	s0,16(sp)
   10c78:	60e2                	ld	ra,24(sp)
   10c7a:	e998                	sd	a4,16(a1)
   10c7c:	8526                	mv	a0,s1
   10c7e:	64a2                	ld	s1,8(sp)
   10c80:	ee98                	sd	a4,24(a3)
   10c82:	6105                	addi	sp,sp,32
   10c84:	af15                	j	113b8 <__malloc_unlock>
   10c86:	e92d                	bnez	a0,10cf8 <_free_r+0x1b8>
   10c88:	6e0c                	ld	a1,24(a2)
   10c8a:	6a10                	ld	a2,16(a2)
   10c8c:	96be                	add	a3,a3,a5
   10c8e:	0016e793          	ori	a5,a3,1
   10c92:	ee0c                	sd	a1,24(a2)
   10c94:	e990                	sd	a2,16(a1)
   10c96:	e71c                	sd	a5,8(a4)
   10c98:	9736                	add	a4,a4,a3
   10c9a:	e314                	sd	a3,0(a4)
   10c9c:	bf99                	j	10bf2 <_free_r+0xb2>
   10c9e:	96be                	add	a3,a3,a5
   10ca0:	00089a63          	bnez	a7,10cb4 <_free_r+0x174>
   10ca4:	ff043583          	ld	a1,-16(s0)
   10ca8:	8f0d                	sub	a4,a4,a1
   10caa:	6f1c                	ld	a5,24(a4)
   10cac:	6b10                	ld	a2,16(a4)
   10cae:	96ae                	add	a3,a3,a1
   10cb0:	ee1c                	sd	a5,24(a2)
   10cb2:	eb90                	sd	a2,16(a5)
   10cb4:	0016e613          	ori	a2,a3,1
   10cb8:	1981b783          	ld	a5,408(gp) # 139b0 <__malloc_trim_threshold>
   10cbc:	e710                	sd	a2,8(a4)
   10cbe:	00e83823          	sd	a4,16(a6)
   10cc2:	f2f6e8e3          	bltu	a3,a5,10bf2 <_free_r+0xb2>
   10cc6:	1c81b583          	ld	a1,456(gp) # 139e0 <__malloc_top_pad>
   10cca:	8526                	mv	a0,s1
   10ccc:	da7ff0ef          	jal	10a72 <_malloc_trim_r>
   10cd0:	b70d                	j	10bf2 <_free_r+0xb2>
   10cd2:	97b6                	add	a5,a5,a3
   10cd4:	bf25                	j	10c0c <_free_r+0xcc>
   10cd6:	4651                	li	a2,20
   10cd8:	02d67563          	bgeu	a2,a3,10d02 <_free_r+0x1c2>
   10cdc:	05400613          	li	a2,84
   10ce0:	04d66f63          	bltu	a2,a3,10d3e <_free_r+0x1fe>
   10ce4:	00c7d693          	srli	a3,a5,0xc
   10ce8:	06f6859b          	addiw	a1,a3,111
   10cec:	0015959b          	slliw	a1,a1,0x1
   10cf0:	058e                	slli	a1,a1,0x3
   10cf2:	06e6861b          	addiw	a2,a3,110
   10cf6:	b785                	j	10c56 <_free_r+0x116>
   10cf8:	0017e693          	ori	a3,a5,1
   10cfc:	e714                	sd	a3,8(a4)
   10cfe:	e21c                	sd	a5,0(a2)
   10d00:	bdcd                	j	10bf2 <_free_r+0xb2>
   10d02:	05c6859b          	addiw	a1,a3,92
   10d06:	0015959b          	slliw	a1,a1,0x1
   10d0a:	058e                	slli	a1,a1,0x3
   10d0c:	05b6861b          	addiw	a2,a3,91
   10d10:	b799                	j	10c56 <_free_r+0x116>
   10d12:	02e83423          	sd	a4,40(a6)
   10d16:	02e83023          	sd	a4,32(a6)
   10d1a:	01173c23          	sd	a7,24(a4)
   10d1e:	01173823          	sd	a7,16(a4)
   10d22:	e708                	sd	a0,8(a4)
   10d24:	e19c                	sd	a5,0(a1)
   10d26:	b5f1                	j	10bf2 <_free_r+0xb2>
   10d28:	00883503          	ld	a0,8(a6)
   10d2c:	4026561b          	sraiw	a2,a2,0x2
   10d30:	4785                	li	a5,1
   10d32:	00c797b3          	sll	a5,a5,a2
   10d36:	8fc9                	or	a5,a5,a0
   10d38:	00f83423          	sd	a5,8(a6)
   10d3c:	bf1d                	j	10c72 <_free_r+0x132>
   10d3e:	15400613          	li	a2,340
   10d42:	00d66c63          	bltu	a2,a3,10d5a <_free_r+0x21a>
   10d46:	00f7d693          	srli	a3,a5,0xf
   10d4a:	0786859b          	addiw	a1,a3,120
   10d4e:	0015959b          	slliw	a1,a1,0x1
   10d52:	058e                	slli	a1,a1,0x3
   10d54:	0776861b          	addiw	a2,a3,119
   10d58:	bdfd                	j	10c56 <_free_r+0x116>
   10d5a:	55400613          	li	a2,1364
   10d5e:	00d66c63          	bltu	a2,a3,10d76 <_free_r+0x236>
   10d62:	0127d693          	srli	a3,a5,0x12
   10d66:	07d6859b          	addiw	a1,a3,125
   10d6a:	0015959b          	slliw	a1,a1,0x1
   10d6e:	058e                	slli	a1,a1,0x3
   10d70:	07c6861b          	addiw	a2,a3,124
   10d74:	b5cd                	j	10c56 <_free_r+0x116>
   10d76:	7f000593          	li	a1,2032
   10d7a:	07e00613          	li	a2,126
   10d7e:	bde1                	j	10c56 <_free_r+0x116>

0000000000010d80 <_malloc_r>:
   10d80:	711d                	addi	sp,sp,-96
   10d82:	e4a6                	sd	s1,72(sp)
   10d84:	e0ca                	sd	s2,64(sp)
   10d86:	ec86                	sd	ra,88(sp)
   10d88:	e8a2                	sd	s0,80(sp)
   10d8a:	fc4e                	sd	s3,56(sp)
   10d8c:	01758493          	addi	s1,a1,23
   10d90:	02e00793          	li	a5,46
   10d94:	892a                	mv	s2,a0
   10d96:	0497ec63          	bltu	a5,s1,10dee <_malloc_r+0x6e>
   10d9a:	02000493          	li	s1,32
   10d9e:	18b4eb63          	bltu	s1,a1,10f34 <_malloc_r+0x1b4>
   10da2:	614000ef          	jal	113b6 <__malloc_lock>
   10da6:	05000793          	li	a5,80
   10daa:	4591                	li	a1,4
   10dac:	00002997          	auipc	s3,0x2
   10db0:	3dc98993          	addi	s3,s3,988 # 13188 <__malloc_av_>
   10db4:	97ce                	add	a5,a5,s3
   10db6:	6780                	ld	s0,8(a5)
   10db8:	ff078713          	addi	a4,a5,-16
   10dbc:	32e40d63          	beq	s0,a4,110f6 <_malloc_r+0x376>
   10dc0:	641c                	ld	a5,8(s0)
   10dc2:	6c14                	ld	a3,24(s0)
   10dc4:	6810                	ld	a2,16(s0)
   10dc6:	9bf1                	andi	a5,a5,-4
   10dc8:	97a2                	add	a5,a5,s0
   10dca:	6798                	ld	a4,8(a5)
   10dcc:	ee14                	sd	a3,24(a2)
   10dce:	ea90                	sd	a2,16(a3)
   10dd0:	00176713          	ori	a4,a4,1
   10dd4:	854a                	mv	a0,s2
   10dd6:	e798                	sd	a4,8(a5)
   10dd8:	5e0000ef          	jal	113b8 <__malloc_unlock>
   10ddc:	60e6                	ld	ra,88(sp)
   10dde:	01040513          	addi	a0,s0,16
   10de2:	6446                	ld	s0,80(sp)
   10de4:	64a6                	ld	s1,72(sp)
   10de6:	6906                	ld	s2,64(sp)
   10de8:	79e2                	ld	s3,56(sp)
   10dea:	6125                	addi	sp,sp,96
   10dec:	8082                	ret
   10dee:	800007b7          	lui	a5,0x80000
   10df2:	98c1                	andi	s1,s1,-16
   10df4:	fff7c793          	not	a5,a5
   10df8:	1297ee63          	bltu	a5,s1,10f34 <_malloc_r+0x1b4>
   10dfc:	12b4ec63          	bltu	s1,a1,10f34 <_malloc_r+0x1b4>
   10e00:	5b6000ef          	jal	113b6 <__malloc_lock>
   10e04:	1f700793          	li	a5,503
   10e08:	3e97f263          	bgeu	a5,s1,111ec <_malloc_r+0x46c>
   10e0c:	0094d793          	srli	a5,s1,0x9
   10e10:	12078d63          	beqz	a5,10f4a <_malloc_r+0x1ca>
   10e14:	4711                	li	a4,4
   10e16:	32f76763          	bltu	a4,a5,11144 <_malloc_r+0x3c4>
   10e1a:	0064d793          	srli	a5,s1,0x6
   10e1e:	0397859b          	addiw	a1,a5,57 # ffffffff80000039 <__BSS_END__+0xffffffff7ffec0c1>
   10e22:	0015961b          	slliw	a2,a1,0x1
   10e26:	0387881b          	addiw	a6,a5,56
   10e2a:	060e                	slli	a2,a2,0x3
   10e2c:	00002997          	auipc	s3,0x2
   10e30:	35c98993          	addi	s3,s3,860 # 13188 <__malloc_av_>
   10e34:	964e                	add	a2,a2,s3
   10e36:	6600                	ld	s0,8(a2)
   10e38:	1641                	addi	a2,a2,-16 # 1ff0 <exit-0xe130>
   10e3a:	02860163          	beq	a2,s0,10e5c <_malloc_r+0xdc>
   10e3e:	457d                	li	a0,31
   10e40:	a039                	j	10e4e <_malloc_r+0xce>
   10e42:	6c14                	ld	a3,24(s0)
   10e44:	28075563          	bgez	a4,110ce <_malloc_r+0x34e>
   10e48:	00d60a63          	beq	a2,a3,10e5c <_malloc_r+0xdc>
   10e4c:	8436                	mv	s0,a3
   10e4e:	641c                	ld	a5,8(s0)
   10e50:	9bf1                	andi	a5,a5,-4
   10e52:	40978733          	sub	a4,a5,s1
   10e56:	fee556e3          	bge	a0,a4,10e42 <_malloc_r+0xc2>
   10e5a:	85c2                	mv	a1,a6
   10e5c:	0209b403          	ld	s0,32(s3)
   10e60:	00002897          	auipc	a7,0x2
   10e64:	33888893          	addi	a7,a7,824 # 13198 <__malloc_av_+0x10>
   10e68:	27140063          	beq	s0,a7,110c8 <_malloc_r+0x348>
   10e6c:	641c                	ld	a5,8(s0)
   10e6e:	46fd                	li	a3,31
   10e70:	9bf1                	andi	a5,a5,-4
   10e72:	40978733          	sub	a4,a5,s1
   10e76:	34e6c463          	blt	a3,a4,111be <_malloc_r+0x43e>
   10e7a:	0319b423          	sd	a7,40(s3)
   10e7e:	0319b023          	sd	a7,32(s3)
   10e82:	32075363          	bgez	a4,111a8 <_malloc_r+0x428>
   10e86:	1ff00713          	li	a4,511
   10e8a:	0089b503          	ld	a0,8(s3)
   10e8e:	26f76963          	bltu	a4,a5,11100 <_malloc_r+0x380>
   10e92:	838d                	srli	a5,a5,0x3
   10e94:	2781                	sext.w	a5,a5
   10e96:	0017871b          	addiw	a4,a5,1
   10e9a:	0017171b          	slliw	a4,a4,0x1
   10e9e:	070e                	slli	a4,a4,0x3
   10ea0:	974e                	add	a4,a4,s3
   10ea2:	6310                	ld	a2,0(a4)
   10ea4:	4027d79b          	sraiw	a5,a5,0x2
   10ea8:	4685                	li	a3,1
   10eaa:	00f697b3          	sll	a5,a3,a5
   10eae:	8d5d                	or	a0,a0,a5
   10eb0:	ff070793          	addi	a5,a4,-16
   10eb4:	e810                	sd	a2,16(s0)
   10eb6:	ec1c                	sd	a5,24(s0)
   10eb8:	00a9b423          	sd	a0,8(s3)
   10ebc:	e300                	sd	s0,0(a4)
   10ebe:	ee00                	sd	s0,24(a2)
   10ec0:	4025d79b          	sraiw	a5,a1,0x2
   10ec4:	4605                	li	a2,1
   10ec6:	00f61633          	sll	a2,a2,a5
   10eca:	08c56763          	bltu	a0,a2,10f58 <_malloc_r+0x1d8>
   10ece:	00a677b3          	and	a5,a2,a0
   10ed2:	ef81                	bnez	a5,10eea <_malloc_r+0x16a>
   10ed4:	0606                	slli	a2,a2,0x1
   10ed6:	99f1                	andi	a1,a1,-4
   10ed8:	00a677b3          	and	a5,a2,a0
   10edc:	2591                	addiw	a1,a1,4
   10ede:	e791                	bnez	a5,10eea <_malloc_r+0x16a>
   10ee0:	0606                	slli	a2,a2,0x1
   10ee2:	00a677b3          	and	a5,a2,a0
   10ee6:	2591                	addiw	a1,a1,4
   10ee8:	dfe5                	beqz	a5,10ee0 <_malloc_r+0x160>
   10eea:	487d                	li	a6,31
   10eec:	0015831b          	addiw	t1,a1,1
   10ef0:	0013131b          	slliw	t1,t1,0x1
   10ef4:	030e                	slli	t1,t1,0x3
   10ef6:	1341                	addi	t1,t1,-16
   10ef8:	934e                	add	t1,t1,s3
   10efa:	851a                	mv	a0,t1
   10efc:	6d1c                	ld	a5,24(a0)
   10efe:	8e2e                	mv	t3,a1
   10f00:	26f50363          	beq	a0,a5,11166 <_malloc_r+0x3e6>
   10f04:	6798                	ld	a4,8(a5)
   10f06:	843e                	mv	s0,a5
   10f08:	6f9c                	ld	a5,24(a5)
   10f0a:	9b71                	andi	a4,a4,-4
   10f0c:	409706b3          	sub	a3,a4,s1
   10f10:	26d84263          	blt	a6,a3,11174 <_malloc_r+0x3f4>
   10f14:	fe06c6e3          	bltz	a3,10f00 <_malloc_r+0x180>
   10f18:	9722                	add	a4,a4,s0
   10f1a:	6714                	ld	a3,8(a4)
   10f1c:	6810                	ld	a2,16(s0)
   10f1e:	854a                	mv	a0,s2
   10f20:	0016e693          	ori	a3,a3,1
   10f24:	e714                	sd	a3,8(a4)
   10f26:	ee1c                	sd	a5,24(a2)
   10f28:	eb90                	sd	a2,16(a5)
   10f2a:	48e000ef          	jal	113b8 <__malloc_unlock>
   10f2e:	01040513          	addi	a0,s0,16
   10f32:	a029                	j	10f3c <_malloc_r+0x1bc>
   10f34:	47b1                	li	a5,12
   10f36:	00f92023          	sw	a5,0(s2)
   10f3a:	4501                	li	a0,0
   10f3c:	60e6                	ld	ra,88(sp)
   10f3e:	6446                	ld	s0,80(sp)
   10f40:	64a6                	ld	s1,72(sp)
   10f42:	6906                	ld	s2,64(sp)
   10f44:	79e2                	ld	s3,56(sp)
   10f46:	6125                	addi	sp,sp,96
   10f48:	8082                	ret
   10f4a:	40000613          	li	a2,1024
   10f4e:	04000593          	li	a1,64
   10f52:	03f00813          	li	a6,63
   10f56:	bdd9                	j	10e2c <_malloc_r+0xac>
   10f58:	0109b403          	ld	s0,16(s3)
   10f5c:	f456                	sd	s5,40(sp)
   10f5e:	641c                	ld	a5,8(s0)
   10f60:	ffc7fa93          	andi	s5,a5,-4
   10f64:	009ae763          	bltu	s5,s1,10f72 <_malloc_r+0x1f2>
   10f68:	409a8733          	sub	a4,s5,s1
   10f6c:	47fd                	li	a5,31
   10f6e:	12e7c763          	blt	a5,a4,1109c <_malloc_r+0x31c>
   10f72:	e862                	sd	s8,16(sp)
   10f74:	19018c13          	addi	s8,gp,400 # 139a8 <__malloc_sbrk_base>
   10f78:	f852                	sd	s4,48(sp)
   10f7a:	000c3703          	ld	a4,0(s8)
   10f7e:	1c81ba03          	ld	s4,456(gp) # 139e0 <__malloc_top_pad>
   10f82:	ec5e                	sd	s7,24(sp)
   10f84:	f05a                	sd	s6,32(sp)
   10f86:	57fd                	li	a5,-1
   10f88:	01540bb3          	add	s7,s0,s5
   10f8c:	9a26                	add	s4,s4,s1
   10f8e:	2ef70363          	beq	a4,a5,11274 <_malloc_r+0x4f4>
   10f92:	6785                	lui	a5,0x1
   10f94:	07fd                	addi	a5,a5,31 # 101f <exit-0xf101>
   10f96:	9a3e                	add	s4,s4,a5
   10f98:	77fd                	lui	a5,0xfffff
   10f9a:	00fa7a33          	and	s4,s4,a5
   10f9e:	85d2                	mv	a1,s4
   10fa0:	854a                	mv	a0,s2
   10fa2:	403000ef          	jal	11ba4 <_sbrk_r>
   10fa6:	57fd                	li	a5,-1
   10fa8:	8b2a                	mv	s6,a0
   10faa:	36f50363          	beq	a0,a5,11310 <_malloc_r+0x590>
   10fae:	e466                	sd	s9,8(sp)
   10fb0:	0d756463          	bltu	a0,s7,11078 <_malloc_r+0x2f8>
   10fb4:	4201a703          	lw	a4,1056(gp) # 13c38 <__malloc_current_mallinfo>
   10fb8:	42018c93          	addi	s9,gp,1056 # 13c38 <__malloc_current_mallinfo>
   10fbc:	0147073b          	addw	a4,a4,s4
   10fc0:	00eca023          	sw	a4,0(s9)
   10fc4:	86ba                	mv	a3,a4
   10fc6:	34ab8963          	beq	s7,a0,11318 <_malloc_r+0x598>
   10fca:	000c3703          	ld	a4,0(s8)
   10fce:	57fd                	li	a5,-1
   10fd0:	36f70163          	beq	a4,a5,11332 <_malloc_r+0x5b2>
   10fd4:	417b07b3          	sub	a5,s6,s7
   10fd8:	9fb5                	addw	a5,a5,a3
   10fda:	00fca023          	sw	a5,0(s9)
   10fde:	00fb7c13          	andi	s8,s6,15
   10fe2:	2a0c0563          	beqz	s8,1128c <_malloc_r+0x50c>
   10fe6:	418b0b33          	sub	s6,s6,s8
   10fea:	6685                	lui	a3,0x1
   10fec:	0b41                	addi	s6,s6,16
   10fee:	06c1                	addi	a3,a3,16 # 1010 <exit-0xf110>
   10ff0:	9a5a                	add	s4,s4,s6
   10ff2:	418686b3          	sub	a3,a3,s8
   10ff6:	414686b3          	sub	a3,a3,s4
   10ffa:	16d2                	slli	a3,a3,0x34
   10ffc:	0346db93          	srli	s7,a3,0x34
   11000:	85de                	mv	a1,s7
   11002:	854a                	mv	a0,s2
   11004:	3a1000ef          	jal	11ba4 <_sbrk_r>
   11008:	57fd                	li	a5,-1
   1100a:	36f50363          	beq	a0,a5,11370 <_malloc_r+0x5f0>
   1100e:	41650533          	sub	a0,a0,s6
   11012:	01750a33          	add	s4,a0,s7
   11016:	000b869b          	sext.w	a3,s7
   1101a:	4201a703          	lw	a4,1056(gp) # 13c38 <__malloc_current_mallinfo>
   1101e:	0169b823          	sd	s6,16(s3)
   11022:	001a6793          	ori	a5,s4,1
   11026:	9f35                	addw	a4,a4,a3
   11028:	00fb3423          	sd	a5,8(s6)
   1102c:	00eca023          	sw	a4,0(s9)
   11030:	03340563          	beq	s0,s3,1105a <_malloc_r+0x2da>
   11034:	467d                	li	a2,31
   11036:	27567b63          	bgeu	a2,s5,112ac <_malloc_r+0x52c>
   1103a:	6414                	ld	a3,8(s0)
   1103c:	fe8a8793          	addi	a5,s5,-24
   11040:	9bc1                	andi	a5,a5,-16
   11042:	8a85                	andi	a3,a3,1
   11044:	8edd                	or	a3,a3,a5
   11046:	e414                	sd	a3,8(s0)
   11048:	45a5                	li	a1,9
   1104a:	00f406b3          	add	a3,s0,a5
   1104e:	e68c                	sd	a1,8(a3)
   11050:	ea8c                	sd	a1,16(a3)
   11052:	20f66763          	bltu	a2,a5,11260 <_malloc_r+0x4e0>
   11056:	008b3783          	ld	a5,8(s6)
   1105a:	1c018693          	addi	a3,gp,448 # 139d8 <__malloc_max_sbrked_mem>
   1105e:	6290                	ld	a2,0(a3)
   11060:	00e67363          	bgeu	a2,a4,11066 <_malloc_r+0x2e6>
   11064:	e298                	sd	a4,0(a3)
   11066:	1b818693          	addi	a3,gp,440 # 139d0 <__malloc_max_total_mem>
   1106a:	6290                	ld	a2,0(a3)
   1106c:	00e67363          	bgeu	a2,a4,11072 <_malloc_r+0x2f2>
   11070:	e298                	sd	a4,0(a3)
   11072:	6ca2                	ld	s9,8(sp)
   11074:	845a                	mv	s0,s6
   11076:	a039                	j	11084 <_malloc_r+0x304>
   11078:	29340363          	beq	s0,s3,112fe <_malloc_r+0x57e>
   1107c:	0109b403          	ld	s0,16(s3)
   11080:	6ca2                	ld	s9,8(sp)
   11082:	641c                	ld	a5,8(s0)
   11084:	9bf1                	andi	a5,a5,-4
   11086:	40978733          	sub	a4,a5,s1
   1108a:	2297e563          	bltu	a5,s1,112b4 <_malloc_r+0x534>
   1108e:	47fd                	li	a5,31
   11090:	22e7d263          	bge	a5,a4,112b4 <_malloc_r+0x534>
   11094:	7a42                	ld	s4,48(sp)
   11096:	7b02                	ld	s6,32(sp)
   11098:	6be2                	ld	s7,24(sp)
   1109a:	6c42                	ld	s8,16(sp)
   1109c:	0014e793          	ori	a5,s1,1
   110a0:	e41c                	sd	a5,8(s0)
   110a2:	94a2                	add	s1,s1,s0
   110a4:	0099b823          	sd	s1,16(s3)
   110a8:	00176713          	ori	a4,a4,1
   110ac:	854a                	mv	a0,s2
   110ae:	e498                	sd	a4,8(s1)
   110b0:	308000ef          	jal	113b8 <__malloc_unlock>
   110b4:	60e6                	ld	ra,88(sp)
   110b6:	01040513          	addi	a0,s0,16
   110ba:	6446                	ld	s0,80(sp)
   110bc:	7aa2                	ld	s5,40(sp)
   110be:	64a6                	ld	s1,72(sp)
   110c0:	6906                	ld	s2,64(sp)
   110c2:	79e2                	ld	s3,56(sp)
   110c4:	6125                	addi	sp,sp,96
   110c6:	8082                	ret
   110c8:	0089b503          	ld	a0,8(s3)
   110cc:	bbd5                	j	10ec0 <_malloc_r+0x140>
   110ce:	6810                	ld	a2,16(s0)
   110d0:	97a2                	add	a5,a5,s0
   110d2:	6798                	ld	a4,8(a5)
   110d4:	ee14                	sd	a3,24(a2)
   110d6:	ea90                	sd	a2,16(a3)
   110d8:	00176713          	ori	a4,a4,1
   110dc:	854a                	mv	a0,s2
   110de:	e798                	sd	a4,8(a5)
   110e0:	2d8000ef          	jal	113b8 <__malloc_unlock>
   110e4:	60e6                	ld	ra,88(sp)
   110e6:	01040513          	addi	a0,s0,16
   110ea:	6446                	ld	s0,80(sp)
   110ec:	64a6                	ld	s1,72(sp)
   110ee:	6906                	ld	s2,64(sp)
   110f0:	79e2                	ld	s3,56(sp)
   110f2:	6125                	addi	sp,sp,96
   110f4:	8082                	ret
   110f6:	6f80                	ld	s0,24(a5)
   110f8:	2589                	addiw	a1,a1,2
   110fa:	d68781e3          	beq	a5,s0,10e5c <_malloc_r+0xdc>
   110fe:	b1c9                	j	10dc0 <_malloc_r+0x40>
   11100:	0097d713          	srli	a4,a5,0x9
   11104:	4691                	li	a3,4
   11106:	0ee6fc63          	bgeu	a3,a4,111fe <_malloc_r+0x47e>
   1110a:	46d1                	li	a3,20
   1110c:	1ae6ed63          	bltu	a3,a4,112c6 <_malloc_r+0x546>
   11110:	05c7061b          	addiw	a2,a4,92
   11114:	0016161b          	slliw	a2,a2,0x1
   11118:	060e                	slli	a2,a2,0x3
   1111a:	05b7069b          	addiw	a3,a4,91
   1111e:	964e                	add	a2,a2,s3
   11120:	6218                	ld	a4,0(a2)
   11122:	1641                	addi	a2,a2,-16
   11124:	00e61663          	bne	a2,a4,11130 <_malloc_r+0x3b0>
   11128:	aa89                	j	1127a <_malloc_r+0x4fa>
   1112a:	6b18                	ld	a4,16(a4)
   1112c:	00e60663          	beq	a2,a4,11138 <_malloc_r+0x3b8>
   11130:	6714                	ld	a3,8(a4)
   11132:	9af1                	andi	a3,a3,-4
   11134:	fed7ebe3          	bltu	a5,a3,1112a <_malloc_r+0x3aa>
   11138:	6f10                	ld	a2,24(a4)
   1113a:	ec10                	sd	a2,24(s0)
   1113c:	e818                	sd	a4,16(s0)
   1113e:	ea00                	sd	s0,16(a2)
   11140:	ef00                	sd	s0,24(a4)
   11142:	bbbd                	j	10ec0 <_malloc_r+0x140>
   11144:	4751                	li	a4,20
   11146:	0cf77663          	bgeu	a4,a5,11212 <_malloc_r+0x492>
   1114a:	05400713          	li	a4,84
   1114e:	18f76a63          	bltu	a4,a5,112e2 <_malloc_r+0x562>
   11152:	00c4d793          	srli	a5,s1,0xc
   11156:	06f7859b          	addiw	a1,a5,111 # fffffffffffff06f <__BSS_END__+0xfffffffffffeb0f7>
   1115a:	0015961b          	slliw	a2,a1,0x1
   1115e:	06e7881b          	addiw	a6,a5,110
   11162:	060e                	slli	a2,a2,0x3
   11164:	b1e1                	j	10e2c <_malloc_r+0xac>
   11166:	2e05                	addiw	t3,t3,1
   11168:	003e7793          	andi	a5,t3,3
   1116c:	0541                	addi	a0,a0,16
   1116e:	cfdd                	beqz	a5,1122c <_malloc_r+0x4ac>
   11170:	6d1c                	ld	a5,24(a0)
   11172:	b379                	j	10f00 <_malloc_r+0x180>
   11174:	6810                	ld	a2,16(s0)
   11176:	0014e593          	ori	a1,s1,1
   1117a:	e40c                	sd	a1,8(s0)
   1117c:	ee1c                	sd	a5,24(a2)
   1117e:	eb90                	sd	a2,16(a5)
   11180:	94a2                	add	s1,s1,s0
   11182:	0299b423          	sd	s1,40(s3)
   11186:	0299b023          	sd	s1,32(s3)
   1118a:	0016e793          	ori	a5,a3,1
   1118e:	9722                	add	a4,a4,s0
   11190:	0114bc23          	sd	a7,24(s1)
   11194:	0114b823          	sd	a7,16(s1)
   11198:	e49c                	sd	a5,8(s1)
   1119a:	854a                	mv	a0,s2
   1119c:	e314                	sd	a3,0(a4)
   1119e:	21a000ef          	jal	113b8 <__malloc_unlock>
   111a2:	01040513          	addi	a0,s0,16
   111a6:	bb59                	j	10f3c <_malloc_r+0x1bc>
   111a8:	97a2                	add	a5,a5,s0
   111aa:	6798                	ld	a4,8(a5)
   111ac:	854a                	mv	a0,s2
   111ae:	00176713          	ori	a4,a4,1
   111b2:	e798                	sd	a4,8(a5)
   111b4:	204000ef          	jal	113b8 <__malloc_unlock>
   111b8:	01040513          	addi	a0,s0,16
   111bc:	b341                	j	10f3c <_malloc_r+0x1bc>
   111be:	0014e693          	ori	a3,s1,1
   111c2:	e414                	sd	a3,8(s0)
   111c4:	94a2                	add	s1,s1,s0
   111c6:	0299b423          	sd	s1,40(s3)
   111ca:	0299b023          	sd	s1,32(s3)
   111ce:	00176693          	ori	a3,a4,1
   111d2:	97a2                	add	a5,a5,s0
   111d4:	0114bc23          	sd	a7,24(s1)
   111d8:	0114b823          	sd	a7,16(s1)
   111dc:	e494                	sd	a3,8(s1)
   111de:	854a                	mv	a0,s2
   111e0:	e398                	sd	a4,0(a5)
   111e2:	1d6000ef          	jal	113b8 <__malloc_unlock>
   111e6:	01040513          	addi	a0,s0,16
   111ea:	bb89                	j	10f3c <_malloc_r+0x1bc>
   111ec:	0034d593          	srli	a1,s1,0x3
   111f0:	0015879b          	addiw	a5,a1,1
   111f4:	0017979b          	slliw	a5,a5,0x1
   111f8:	078e                	slli	a5,a5,0x3
   111fa:	2581                	sext.w	a1,a1
   111fc:	be45                	j	10dac <_malloc_r+0x2c>
   111fe:	0067d713          	srli	a4,a5,0x6
   11202:	0397061b          	addiw	a2,a4,57
   11206:	0016161b          	slliw	a2,a2,0x1
   1120a:	060e                	slli	a2,a2,0x3
   1120c:	0387069b          	addiw	a3,a4,56
   11210:	b739                	j	1111e <_malloc_r+0x39e>
   11212:	05c7859b          	addiw	a1,a5,92
   11216:	0015961b          	slliw	a2,a1,0x1
   1121a:	05b7881b          	addiw	a6,a5,91
   1121e:	060e                	slli	a2,a2,0x3
   11220:	b131                	j	10e2c <_malloc_r+0xac>
   11222:	01033783          	ld	a5,16(t1)
   11226:	35fd                	addiw	a1,a1,-1
   11228:	18679463          	bne	a5,t1,113b0 <_malloc_r+0x630>
   1122c:	0035f793          	andi	a5,a1,3
   11230:	1341                	addi	t1,t1,-16
   11232:	fbe5                	bnez	a5,11222 <_malloc_r+0x4a2>
   11234:	0089b703          	ld	a4,8(s3)
   11238:	fff64793          	not	a5,a2
   1123c:	8ff9                	and	a5,a5,a4
   1123e:	00f9b423          	sd	a5,8(s3)
   11242:	0606                	slli	a2,a2,0x1
   11244:	d0c7eae3          	bltu	a5,a2,10f58 <_malloc_r+0x1d8>
   11248:	d00608e3          	beqz	a2,10f58 <_malloc_r+0x1d8>
   1124c:	00f67733          	and	a4,a2,a5
   11250:	e711                	bnez	a4,1125c <_malloc_r+0x4dc>
   11252:	0606                	slli	a2,a2,0x1
   11254:	00f67733          	and	a4,a2,a5
   11258:	2e11                	addiw	t3,t3,4
   1125a:	df65                	beqz	a4,11252 <_malloc_r+0x4d2>
   1125c:	85f2                	mv	a1,t3
   1125e:	b179                	j	10eec <_malloc_r+0x16c>
   11260:	01040593          	addi	a1,s0,16
   11264:	854a                	mv	a0,s2
   11266:	8dbff0ef          	jal	10b40 <_free_r>
   1126a:	4201a703          	lw	a4,1056(gp) # 13c38 <__malloc_current_mallinfo>
   1126e:	0109bb03          	ld	s6,16(s3)
   11272:	b3d5                	j	11056 <_malloc_r+0x2d6>
   11274:	020a0a13          	addi	s4,s4,32
   11278:	b31d                	j	10f9e <_malloc_r+0x21e>
   1127a:	4026d69b          	sraiw	a3,a3,0x2
   1127e:	4785                	li	a5,1
   11280:	00d797b3          	sll	a5,a5,a3
   11284:	8d5d                	or	a0,a0,a5
   11286:	00a9b423          	sd	a0,8(s3)
   1128a:	bd45                	j	1113a <_malloc_r+0x3ba>
   1128c:	014b0bb3          	add	s7,s6,s4
   11290:	41700bb3          	neg	s7,s7
   11294:	1bd2                	slli	s7,s7,0x34
   11296:	034bdb93          	srli	s7,s7,0x34
   1129a:	85de                	mv	a1,s7
   1129c:	854a                	mv	a0,s2
   1129e:	107000ef          	jal	11ba4 <_sbrk_r>
   112a2:	57fd                	li	a5,-1
   112a4:	4681                	li	a3,0
   112a6:	d6f514e3          	bne	a0,a5,1100e <_malloc_r+0x28e>
   112aa:	bb85                	j	1101a <_malloc_r+0x29a>
   112ac:	6ca2                	ld	s9,8(sp)
   112ae:	4785                	li	a5,1
   112b0:	00fb3423          	sd	a5,8(s6)
   112b4:	854a                	mv	a0,s2
   112b6:	102000ef          	jal	113b8 <__malloc_unlock>
   112ba:	7a42                	ld	s4,48(sp)
   112bc:	7aa2                	ld	s5,40(sp)
   112be:	7b02                	ld	s6,32(sp)
   112c0:	6be2                	ld	s7,24(sp)
   112c2:	6c42                	ld	s8,16(sp)
   112c4:	b99d                	j	10f3a <_malloc_r+0x1ba>
   112c6:	05400693          	li	a3,84
   112ca:	06e6e763          	bltu	a3,a4,11338 <_malloc_r+0x5b8>
   112ce:	00c7d713          	srli	a4,a5,0xc
   112d2:	06f7061b          	addiw	a2,a4,111
   112d6:	0016161b          	slliw	a2,a2,0x1
   112da:	060e                	slli	a2,a2,0x3
   112dc:	06e7069b          	addiw	a3,a4,110
   112e0:	bd3d                	j	1111e <_malloc_r+0x39e>
   112e2:	15400713          	li	a4,340
   112e6:	06f76763          	bltu	a4,a5,11354 <_malloc_r+0x5d4>
   112ea:	00f4d793          	srli	a5,s1,0xf
   112ee:	0787859b          	addiw	a1,a5,120
   112f2:	0015961b          	slliw	a2,a1,0x1
   112f6:	0777881b          	addiw	a6,a5,119
   112fa:	060e                	slli	a2,a2,0x3
   112fc:	be05                	j	10e2c <_malloc_r+0xac>
   112fe:	4201a683          	lw	a3,1056(gp) # 13c38 <__malloc_current_mallinfo>
   11302:	42018c93          	addi	s9,gp,1056 # 13c38 <__malloc_current_mallinfo>
   11306:	014686bb          	addw	a3,a3,s4
   1130a:	00dca023          	sw	a3,0(s9)
   1130e:	b975                	j	10fca <_malloc_r+0x24a>
   11310:	0109b403          	ld	s0,16(s3)
   11314:	641c                	ld	a5,8(s0)
   11316:	b3bd                	j	11084 <_malloc_r+0x304>
   11318:	03451793          	slli	a5,a0,0x34
   1131c:	ca0797e3          	bnez	a5,10fca <_malloc_r+0x24a>
   11320:	0109bb03          	ld	s6,16(s3)
   11324:	014a87b3          	add	a5,s5,s4
   11328:	0017e793          	ori	a5,a5,1
   1132c:	00fb3423          	sd	a5,8(s6)
   11330:	b32d                	j	1105a <_malloc_r+0x2da>
   11332:	016c3023          	sd	s6,0(s8)
   11336:	b165                	j	10fde <_malloc_r+0x25e>
   11338:	15400693          	li	a3,340
   1133c:	04e6e063          	bltu	a3,a4,1137c <_malloc_r+0x5fc>
   11340:	00f7d713          	srli	a4,a5,0xf
   11344:	0787061b          	addiw	a2,a4,120
   11348:	0016161b          	slliw	a2,a2,0x1
   1134c:	060e                	slli	a2,a2,0x3
   1134e:	0777069b          	addiw	a3,a4,119
   11352:	b3f1                	j	1111e <_malloc_r+0x39e>
   11354:	55400713          	li	a4,1364
   11358:	04f76063          	bltu	a4,a5,11398 <_malloc_r+0x618>
   1135c:	0124d793          	srli	a5,s1,0x12
   11360:	07d7859b          	addiw	a1,a5,125
   11364:	0015961b          	slliw	a2,a1,0x1
   11368:	07c7881b          	addiw	a6,a5,124
   1136c:	060e                	slli	a2,a2,0x3
   1136e:	bc7d                	j	10e2c <_malloc_r+0xac>
   11370:	1c41                	addi	s8,s8,-16
   11372:	9a62                	add	s4,s4,s8
   11374:	416a0a33          	sub	s4,s4,s6
   11378:	4681                	li	a3,0
   1137a:	b145                	j	1101a <_malloc_r+0x29a>
   1137c:	55400693          	li	a3,1364
   11380:	02e6e363          	bltu	a3,a4,113a6 <_malloc_r+0x626>
   11384:	0127d713          	srli	a4,a5,0x12
   11388:	07d7061b          	addiw	a2,a4,125
   1138c:	0016161b          	slliw	a2,a2,0x1
   11390:	060e                	slli	a2,a2,0x3
   11392:	07c7069b          	addiw	a3,a4,124
   11396:	b361                	j	1111e <_malloc_r+0x39e>
   11398:	7f000613          	li	a2,2032
   1139c:	07f00593          	li	a1,127
   113a0:	07e00813          	li	a6,126
   113a4:	b461                	j	10e2c <_malloc_r+0xac>
   113a6:	7f000613          	li	a2,2032
   113aa:	07e00693          	li	a3,126
   113ae:	bb85                	j	1111e <_malloc_r+0x39e>
   113b0:	0089b783          	ld	a5,8(s3)
   113b4:	b579                	j	11242 <_malloc_r+0x4c2>

00000000000113b6 <__malloc_lock>:
   113b6:	8082                	ret

00000000000113b8 <__malloc_unlock>:
   113b8:	8082                	ret

00000000000113ba <_fclose_r>:
   113ba:	1101                	addi	sp,sp,-32
   113bc:	ec06                	sd	ra,24(sp)
   113be:	e04a                	sd	s2,0(sp)
   113c0:	cd89                	beqz	a1,113da <_fclose_r+0x20>
   113c2:	e822                	sd	s0,16(sp)
   113c4:	e426                	sd	s1,8(sp)
   113c6:	842e                	mv	s0,a1
   113c8:	84aa                	mv	s1,a0
   113ca:	c119                	beqz	a0,113d0 <_fclose_r+0x16>
   113cc:	653c                	ld	a5,72(a0)
   113ce:	c7d9                	beqz	a5,1145c <_fclose_r+0xa2>
   113d0:	01041783          	lh	a5,16(s0)
   113d4:	eb89                	bnez	a5,113e6 <_fclose_r+0x2c>
   113d6:	6442                	ld	s0,16(sp)
   113d8:	64a2                	ld	s1,8(sp)
   113da:	60e2                	ld	ra,24(sp)
   113dc:	4901                	li	s2,0
   113de:	854a                	mv	a0,s2
   113e0:	6902                	ld	s2,0(sp)
   113e2:	6105                	addi	sp,sp,32
   113e4:	8082                	ret
   113e6:	85a2                	mv	a1,s0
   113e8:	8526                	mv	a0,s1
   113ea:	080000ef          	jal	1146a <__sflush_r>
   113ee:	683c                	ld	a5,80(s0)
   113f0:	892a                	mv	s2,a0
   113f2:	c791                	beqz	a5,113fe <_fclose_r+0x44>
   113f4:	780c                	ld	a1,48(s0)
   113f6:	8526                	mv	a0,s1
   113f8:	9782                	jalr	a5
   113fa:	04054663          	bltz	a0,11446 <_fclose_r+0x8c>
   113fe:	01045783          	lhu	a5,16(s0)
   11402:	0807f793          	andi	a5,a5,128
   11406:	e7b1                	bnez	a5,11452 <_fclose_r+0x98>
   11408:	6c2c                	ld	a1,88(s0)
   1140a:	c991                	beqz	a1,1141e <_fclose_r+0x64>
   1140c:	07440793          	addi	a5,s0,116
   11410:	00f58563          	beq	a1,a5,1141a <_fclose_r+0x60>
   11414:	8526                	mv	a0,s1
   11416:	f2aff0ef          	jal	10b40 <_free_r>
   1141a:	04043c23          	sd	zero,88(s0)
   1141e:	7c2c                	ld	a1,120(s0)
   11420:	c591                	beqz	a1,1142c <_fclose_r+0x72>
   11422:	8526                	mv	a0,s1
   11424:	f1cff0ef          	jal	10b40 <_free_r>
   11428:	06043c23          	sd	zero,120(s0)
   1142c:	852ff0ef          	jal	1047e <__sfp_lock_acquire>
   11430:	00041823          	sh	zero,16(s0)
   11434:	84cff0ef          	jal	10480 <__sfp_lock_release>
   11438:	60e2                	ld	ra,24(sp)
   1143a:	6442                	ld	s0,16(sp)
   1143c:	64a2                	ld	s1,8(sp)
   1143e:	854a                	mv	a0,s2
   11440:	6902                	ld	s2,0(sp)
   11442:	6105                	addi	sp,sp,32
   11444:	8082                	ret
   11446:	01045783          	lhu	a5,16(s0)
   1144a:	597d                	li	s2,-1
   1144c:	0807f793          	andi	a5,a5,128
   11450:	dfc5                	beqz	a5,11408 <_fclose_r+0x4e>
   11452:	6c0c                	ld	a1,24(s0)
   11454:	8526                	mv	a0,s1
   11456:	eeaff0ef          	jal	10b40 <_free_r>
   1145a:	b77d                	j	11408 <_fclose_r+0x4e>
   1145c:	80aff0ef          	jal	10466 <__sinit>
   11460:	bf85                	j	113d0 <_fclose_r+0x16>

0000000000011462 <fclose>:
   11462:	85aa                	mv	a1,a0
   11464:	1881b503          	ld	a0,392(gp) # 139a0 <_impure_ptr>
   11468:	bf89                	j	113ba <_fclose_r>

000000000001146a <__sflush_r>:
   1146a:	01059703          	lh	a4,16(a1)
   1146e:	7179                	addi	sp,sp,-48
   11470:	f022                	sd	s0,32(sp)
   11472:	e44e                	sd	s3,8(sp)
   11474:	f406                	sd	ra,40(sp)
   11476:	00877793          	andi	a5,a4,8
   1147a:	842e                	mv	s0,a1
   1147c:	89aa                	mv	s3,a0
   1147e:	e7e1                	bnez	a5,11546 <__sflush_r+0xdc>
   11480:	6785                	lui	a5,0x1
   11482:	80078793          	addi	a5,a5,-2048 # 800 <exit-0xf920>
   11486:	4594                	lw	a3,8(a1)
   11488:	8fd9                	or	a5,a5,a4
   1148a:	00f59823          	sh	a5,16(a1)
   1148e:	10d05963          	blez	a3,115a0 <__sflush_r+0x136>
   11492:	04843803          	ld	a6,72(s0)
   11496:	0a080263          	beqz	a6,1153a <__sflush_r+0xd0>
   1149a:	ec26                	sd	s1,24(sp)
   1149c:	03371693          	slli	a3,a4,0x33
   114a0:	0009a483          	lw	s1,0(s3)
   114a4:	0009a023          	sw	zero,0(s3)
   114a8:	1006c363          	bltz	a3,115ae <__sflush_r+0x144>
   114ac:	780c                	ld	a1,48(s0)
   114ae:	4601                	li	a2,0
   114b0:	4685                	li	a3,1
   114b2:	854e                	mv	a0,s3
   114b4:	9802                	jalr	a6
   114b6:	57fd                	li	a5,-1
   114b8:	862a                	mv	a2,a0
   114ba:	12f50163          	beq	a0,a5,115dc <__sflush_r+0x172>
   114be:	01041783          	lh	a5,16(s0)
   114c2:	04843803          	ld	a6,72(s0)
   114c6:	8b91                	andi	a5,a5,4
   114c8:	c799                	beqz	a5,114d6 <__sflush_r+0x6c>
   114ca:	4418                	lw	a4,8(s0)
   114cc:	6c3c                	ld	a5,88(s0)
   114ce:	8e19                	sub	a2,a2,a4
   114d0:	c399                	beqz	a5,114d6 <__sflush_r+0x6c>
   114d2:	583c                	lw	a5,112(s0)
   114d4:	8e1d                	sub	a2,a2,a5
   114d6:	780c                	ld	a1,48(s0)
   114d8:	4681                	li	a3,0
   114da:	854e                	mv	a0,s3
   114dc:	9802                	jalr	a6
   114de:	577d                	li	a4,-1
   114e0:	01041783          	lh	a5,16(s0)
   114e4:	0ce51763          	bne	a0,a4,115b2 <__sflush_r+0x148>
   114e8:	0009a683          	lw	a3,0(s3)
   114ec:	4775                	li	a4,29
   114ee:	10d76363          	bltu	a4,a3,115f4 <__sflush_r+0x18a>
   114f2:	20400737          	lui	a4,0x20400
   114f6:	0705                	addi	a4,a4,1 # 20400001 <__BSS_END__+0x203ec089>
   114f8:	00d75733          	srl	a4,a4,a3
   114fc:	8b05                	andi	a4,a4,1
   114fe:	cb7d                	beqz	a4,115f4 <__sflush_r+0x18a>
   11500:	6c10                	ld	a2,24(s0)
   11502:	777d                	lui	a4,0xfffff
   11504:	7ff70713          	addi	a4,a4,2047 # fffffffffffff7ff <__BSS_END__+0xfffffffffffeb887>
   11508:	8f7d                	and	a4,a4,a5
   1150a:	00e41823          	sh	a4,16(s0)
   1150e:	00042423          	sw	zero,8(s0)
   11512:	e010                	sd	a2,0(s0)
   11514:	03379713          	slli	a4,a5,0x33
   11518:	00075363          	bgez	a4,1151e <__sflush_r+0xb4>
   1151c:	cacd                	beqz	a3,115ce <__sflush_r+0x164>
   1151e:	6c2c                	ld	a1,88(s0)
   11520:	0099a023          	sw	s1,0(s3)
   11524:	c9d5                	beqz	a1,115d8 <__sflush_r+0x16e>
   11526:	07440793          	addi	a5,s0,116
   1152a:	00f58563          	beq	a1,a5,11534 <__sflush_r+0xca>
   1152e:	854e                	mv	a0,s3
   11530:	e10ff0ef          	jal	10b40 <_free_r>
   11534:	64e2                	ld	s1,24(sp)
   11536:	04043c23          	sd	zero,88(s0)
   1153a:	70a2                	ld	ra,40(sp)
   1153c:	7402                	ld	s0,32(sp)
   1153e:	69a2                	ld	s3,8(sp)
   11540:	4501                	li	a0,0
   11542:	6145                	addi	sp,sp,48
   11544:	8082                	ret
   11546:	e84a                	sd	s2,16(sp)
   11548:	0185b903          	ld	s2,24(a1)
   1154c:	04090f63          	beqz	s2,115aa <__sflush_r+0x140>
   11550:	ec26                	sd	s1,24(sp)
   11552:	6184                	ld	s1,0(a1)
   11554:	8b0d                	andi	a4,a4,3
   11556:	0125b023          	sd	s2,0(a1)
   1155a:	412484bb          	subw	s1,s1,s2
   1155e:	4781                	li	a5,0
   11560:	e311                	bnez	a4,11564 <__sflush_r+0xfa>
   11562:	519c                	lw	a5,32(a1)
   11564:	c45c                	sw	a5,12(s0)
   11566:	00904663          	bgtz	s1,11572 <__sflush_r+0x108>
   1156a:	a83d                	j	115a8 <__sflush_r+0x13e>
   1156c:	992a                	add	s2,s2,a0
   1156e:	02905d63          	blez	s1,115a8 <__sflush_r+0x13e>
   11572:	603c                	ld	a5,64(s0)
   11574:	780c                	ld	a1,48(s0)
   11576:	86a6                	mv	a3,s1
   11578:	864a                	mv	a2,s2
   1157a:	854e                	mv	a0,s3
   1157c:	9782                	jalr	a5
   1157e:	9c89                	subw	s1,s1,a0
   11580:	fea046e3          	bgtz	a0,1156c <__sflush_r+0x102>
   11584:	01041783          	lh	a5,16(s0)
   11588:	6942                	ld	s2,16(sp)
   1158a:	0407e793          	ori	a5,a5,64
   1158e:	70a2                	ld	ra,40(sp)
   11590:	00f41823          	sh	a5,16(s0)
   11594:	7402                	ld	s0,32(sp)
   11596:	64e2                	ld	s1,24(sp)
   11598:	69a2                	ld	s3,8(sp)
   1159a:	557d                	li	a0,-1
   1159c:	6145                	addi	sp,sp,48
   1159e:	8082                	ret
   115a0:	59b4                	lw	a3,112(a1)
   115a2:	eed048e3          	bgtz	a3,11492 <__sflush_r+0x28>
   115a6:	bf51                	j	1153a <__sflush_r+0xd0>
   115a8:	64e2                	ld	s1,24(sp)
   115aa:	6942                	ld	s2,16(sp)
   115ac:	b779                	j	1153a <__sflush_r+0xd0>
   115ae:	6850                	ld	a2,144(s0)
   115b0:	bf19                	j	114c6 <__sflush_r+0x5c>
   115b2:	6c14                	ld	a3,24(s0)
   115b4:	777d                	lui	a4,0xfffff
   115b6:	7ff70713          	addi	a4,a4,2047 # fffffffffffff7ff <__BSS_END__+0xfffffffffffeb887>
   115ba:	8f7d                	and	a4,a4,a5
   115bc:	00e41823          	sh	a4,16(s0)
   115c0:	00042423          	sw	zero,8(s0)
   115c4:	e014                	sd	a3,0(s0)
   115c6:	03379713          	slli	a4,a5,0x33
   115ca:	f4075ae3          	bgez	a4,1151e <__sflush_r+0xb4>
   115ce:	6c2c                	ld	a1,88(s0)
   115d0:	e848                	sd	a0,144(s0)
   115d2:	0099a023          	sw	s1,0(s3)
   115d6:	f9a1                	bnez	a1,11526 <__sflush_r+0xbc>
   115d8:	64e2                	ld	s1,24(sp)
   115da:	b785                	j	1153a <__sflush_r+0xd0>
   115dc:	0009a783          	lw	a5,0(s3)
   115e0:	ec078fe3          	beqz	a5,114be <__sflush_r+0x54>
   115e4:	4775                	li	a4,29
   115e6:	00e78a63          	beq	a5,a4,115fa <__sflush_r+0x190>
   115ea:	4759                	li	a4,22
   115ec:	00e78763          	beq	a5,a4,115fa <__sflush_r+0x190>
   115f0:	01041783          	lh	a5,16(s0)
   115f4:	0407e793          	ori	a5,a5,64
   115f8:	bf59                	j	1158e <__sflush_r+0x124>
   115fa:	0099a023          	sw	s1,0(s3)
   115fe:	64e2                	ld	s1,24(sp)
   11600:	bf2d                	j	1153a <__sflush_r+0xd0>

0000000000011602 <_fflush_r>:
   11602:	1101                	addi	sp,sp,-32
   11604:	e822                	sd	s0,16(sp)
   11606:	ec06                	sd	ra,24(sp)
   11608:	842a                	mv	s0,a0
   1160a:	c119                	beqz	a0,11610 <_fflush_r+0xe>
   1160c:	653c                	ld	a5,72(a0)
   1160e:	cf91                	beqz	a5,1162a <_fflush_r+0x28>
   11610:	01059783          	lh	a5,16(a1)
   11614:	e791                	bnez	a5,11620 <_fflush_r+0x1e>
   11616:	60e2                	ld	ra,24(sp)
   11618:	6442                	ld	s0,16(sp)
   1161a:	4501                	li	a0,0
   1161c:	6105                	addi	sp,sp,32
   1161e:	8082                	ret
   11620:	8522                	mv	a0,s0
   11622:	6442                	ld	s0,16(sp)
   11624:	60e2                	ld	ra,24(sp)
   11626:	6105                	addi	sp,sp,32
   11628:	b589                	j	1146a <__sflush_r>
   1162a:	e42e                	sd	a1,8(sp)
   1162c:	e3bfe0ef          	jal	10466 <__sinit>
   11630:	65a2                	ld	a1,8(sp)
   11632:	bff9                	j	11610 <_fflush_r+0xe>

0000000000011634 <fflush>:
   11634:	cd05                	beqz	a0,1166c <fflush+0x38>
   11636:	85aa                	mv	a1,a0
   11638:	1881b503          	ld	a0,392(gp) # 139a0 <_impure_ptr>
   1163c:	c119                	beqz	a0,11642 <fflush+0xe>
   1163e:	653c                	ld	a5,72(a0)
   11640:	c799                	beqz	a5,1164e <fflush+0x1a>
   11642:	01059783          	lh	a5,16(a1)
   11646:	e399                	bnez	a5,1164c <fflush+0x18>
   11648:	4501                	li	a0,0
   1164a:	8082                	ret
   1164c:	bd39                	j	1146a <__sflush_r>
   1164e:	1101                	addi	sp,sp,-32
   11650:	e42e                	sd	a1,8(sp)
   11652:	e02a                	sd	a0,0(sp)
   11654:	ec06                	sd	ra,24(sp)
   11656:	e11fe0ef          	jal	10466 <__sinit>
   1165a:	65a2                	ld	a1,8(sp)
   1165c:	6502                	ld	a0,0(sp)
   1165e:	01059783          	lh	a5,16(a1)
   11662:	e39d                	bnez	a5,11688 <fflush+0x54>
   11664:	60e2                	ld	ra,24(sp)
   11666:	4501                	li	a0,0
   11668:	6105                	addi	sp,sp,32
   1166a:	8082                	ret
   1166c:	00002617          	auipc	a2,0x2
   11670:	9ac60613          	addi	a2,a2,-1620 # 13018 <__sglue>
   11674:	00000597          	auipc	a1,0x0
   11678:	f8e58593          	addi	a1,a1,-114 # 11602 <_fflush_r>
   1167c:	00002517          	auipc	a0,0x2
   11680:	9b450513          	addi	a0,a0,-1612 # 13030 <_impure_data>
   11684:	e27fe06f          	j	104aa <_fwalk_sglue>
   11688:	60e2                	ld	ra,24(sp)
   1168a:	6105                	addi	sp,sp,32
   1168c:	bbf9                	j	1146a <__sflush_r>

000000000001168e <__sfvwrite_r>:
   1168e:	6a1c                	ld	a5,16(a2)
   11690:	1a078063          	beqz	a5,11830 <__sfvwrite_r+0x1a2>
   11694:	01059703          	lh	a4,16(a1)
   11698:	711d                	addi	sp,sp,-96
   1169a:	e8a2                	sd	s0,80(sp)
   1169c:	f852                	sd	s4,48(sp)
   1169e:	f05a                	sd	s6,32(sp)
   116a0:	ec86                	sd	ra,88(sp)
   116a2:	00877793          	andi	a5,a4,8
   116a6:	8a32                	mv	s4,a2
   116a8:	8b2a                	mv	s6,a0
   116aa:	842e                	mv	s0,a1
   116ac:	c7bd                	beqz	a5,1171a <__sfvwrite_r+0x8c>
   116ae:	6d9c                	ld	a5,24(a1)
   116b0:	c7ad                	beqz	a5,1171a <__sfvwrite_r+0x8c>
   116b2:	e4a6                	sd	s1,72(sp)
   116b4:	e0ca                	sd	s2,64(sp)
   116b6:	fc4e                	sd	s3,56(sp)
   116b8:	f456                	sd	s5,40(sp)
   116ba:	00277793          	andi	a5,a4,2
   116be:	000a3483          	ld	s1,0(s4)
   116c2:	cfad                	beqz	a5,1173c <__sfvwrite_r+0xae>
   116c4:	80000ab7          	lui	s5,0x80000
   116c8:	c00aca93          	xori	s5,s5,-1024
   116cc:	4981                	li	s3,0
   116ce:	4901                	li	s2,0
   116d0:	864e                	mv	a2,s3
   116d2:	855a                	mv	a0,s6
   116d4:	14090863          	beqz	s2,11824 <__sfvwrite_r+0x196>
   116d8:	800007b7          	lui	a5,0x80000
   116dc:	86ca                	mv	a3,s2
   116de:	012af463          	bgeu	s5,s2,116e6 <__sfvwrite_r+0x58>
   116e2:	c007c693          	xori	a3,a5,-1024
   116e6:	603c                	ld	a5,64(s0)
   116e8:	780c                	ld	a1,48(s0)
   116ea:	2681                	sext.w	a3,a3
   116ec:	9782                	jalr	a5
   116ee:	2ca05c63          	blez	a0,119c6 <__sfvwrite_r+0x338>
   116f2:	010a3783          	ld	a5,16(s4)
   116f6:	99aa                	add	s3,s3,a0
   116f8:	40a90933          	sub	s2,s2,a0
   116fc:	8f89                	sub	a5,a5,a0
   116fe:	00fa3823          	sd	a5,16(s4)
   11702:	f7f9                	bnez	a5,116d0 <__sfvwrite_r+0x42>
   11704:	64a6                	ld	s1,72(sp)
   11706:	6906                	ld	s2,64(sp)
   11708:	79e2                	ld	s3,56(sp)
   1170a:	7aa2                	ld	s5,40(sp)
   1170c:	4501                	li	a0,0
   1170e:	60e6                	ld	ra,88(sp)
   11710:	6446                	ld	s0,80(sp)
   11712:	7a42                	ld	s4,48(sp)
   11714:	7b02                	ld	s6,32(sp)
   11716:	6125                	addi	sp,sp,96
   11718:	8082                	ret
   1171a:	85a2                	mv	a1,s0
   1171c:	855a                	mv	a0,s6
   1171e:	2c0000ef          	jal	119de <__swsetup_r>
   11722:	1e051663          	bnez	a0,1190e <__sfvwrite_r+0x280>
   11726:	01041703          	lh	a4,16(s0)
   1172a:	e4a6                	sd	s1,72(sp)
   1172c:	e0ca                	sd	s2,64(sp)
   1172e:	fc4e                	sd	s3,56(sp)
   11730:	f456                	sd	s5,40(sp)
   11732:	00277793          	andi	a5,a4,2
   11736:	000a3483          	ld	s1,0(s4)
   1173a:	f7c9                	bnez	a5,116c4 <__sfvwrite_r+0x36>
   1173c:	ec5e                	sd	s7,24(sp)
   1173e:	e862                	sd	s8,16(sp)
   11740:	e466                	sd	s9,8(sp)
   11742:	00177793          	andi	a5,a4,1
   11746:	e7fd                	bnez	a5,11834 <__sfvwrite_r+0x1a6>
   11748:	80000bb7          	lui	s7,0x80000
   1174c:	fffbcb93          	not	s7,s7
   11750:	4c01                	li	s8,0
   11752:	4901                	li	s2,0
   11754:	0c090263          	beqz	s2,11818 <__sfvwrite_r+0x18a>
   11758:	20077793          	andi	a5,a4,512
   1175c:	00c42a83          	lw	s5,12(s0)
   11760:	6008                	ld	a0,0(s0)
   11762:	1a078863          	beqz	a5,11912 <__sfvwrite_r+0x284>
   11766:	07596e63          	bltu	s2,s5,117e2 <__sfvwrite_r+0x154>
   1176a:	48077793          	andi	a5,a4,1152
   1176e:	22078163          	beqz	a5,11990 <__sfvwrite_r+0x302>
   11772:	5014                	lw	a3,32(s0)
   11774:	6c0c                	ld	a1,24(s0)
   11776:	0016979b          	slliw	a5,a3,0x1
   1177a:	9fb5                	addw	a5,a5,a3
   1177c:	8d0d                	sub	a0,a0,a1
   1177e:	01f7d99b          	srliw	s3,a5,0x1f
   11782:	00050a9b          	sext.w	s5,a0
   11786:	00f989bb          	addw	s3,s3,a5
   1178a:	001a8793          	addi	a5,s5,1 # ffffffff80000001 <__BSS_END__+0xffffffff7ffec089>
   1178e:	4019d99b          	sraiw	s3,s3,0x1
   11792:	97ca                	add	a5,a5,s2
   11794:	00f9f563          	bgeu	s3,a5,1179e <__sfvwrite_r+0x110>
   11798:	2505                	addiw	a0,a0,1
   1179a:	012509bb          	addw	s3,a0,s2
   1179e:	40077713          	andi	a4,a4,1024
   117a2:	1e070963          	beqz	a4,11994 <__sfvwrite_r+0x306>
   117a6:	85ce                	mv	a1,s3
   117a8:	855a                	mv	a0,s6
   117aa:	dd6ff0ef          	jal	10d80 <_malloc_r>
   117ae:	8caa                	mv	s9,a0
   117b0:	20050e63          	beqz	a0,119cc <__sfvwrite_r+0x33e>
   117b4:	6c0c                	ld	a1,24(s0)
   117b6:	8656                	mv	a2,s5
   117b8:	53a000ef          	jal	11cf2 <memcpy>
   117bc:	01045783          	lhu	a5,16(s0)
   117c0:	b7f7f793          	andi	a5,a5,-1153
   117c4:	0807e793          	ori	a5,a5,128
   117c8:	00f41823          	sh	a5,16(s0)
   117cc:	015c8533          	add	a0,s9,s5
   117d0:	41598abb          	subw	s5,s3,s5
   117d4:	01943c23          	sd	s9,24(s0)
   117d8:	e008                	sd	a0,0(s0)
   117da:	01542623          	sw	s5,12(s0)
   117de:	03342023          	sw	s3,32(s0)
   117e2:	8cca                	mv	s9,s2
   117e4:	8aca                	mv	s5,s2
   117e6:	8656                	mv	a2,s5
   117e8:	85e2                	mv	a1,s8
   117ea:	422000ef          	jal	11c0c <memmove>
   117ee:	4458                	lw	a4,12(s0)
   117f0:	601c                	ld	a5,0(s0)
   117f2:	89ca                	mv	s3,s2
   117f4:	4197073b          	subw	a4,a4,s9
   117f8:	97d6                	add	a5,a5,s5
   117fa:	c458                	sw	a4,12(s0)
   117fc:	e01c                	sd	a5,0(s0)
   117fe:	4901                	li	s2,0
   11800:	010a3783          	ld	a5,16(s4)
   11804:	9c4e                	add	s8,s8,s3
   11806:	413787b3          	sub	a5,a5,s3
   1180a:	00fa3823          	sd	a5,16(s4)
   1180e:	c7c1                	beqz	a5,11896 <__sfvwrite_r+0x208>
   11810:	01041703          	lh	a4,16(s0)
   11814:	f40912e3          	bnez	s2,11758 <__sfvwrite_r+0xca>
   11818:	0004bc03          	ld	s8,0(s1)
   1181c:	0084b903          	ld	s2,8(s1)
   11820:	04c1                	addi	s1,s1,16
   11822:	bf0d                	j	11754 <__sfvwrite_r+0xc6>
   11824:	0004b983          	ld	s3,0(s1)
   11828:	0084b903          	ld	s2,8(s1)
   1182c:	04c1                	addi	s1,s1,16
   1182e:	b54d                	j	116d0 <__sfvwrite_r+0x42>
   11830:	4501                	li	a0,0
   11832:	8082                	ret
   11834:	4981                	li	s3,0
   11836:	4501                	li	a0,0
   11838:	4c81                	li	s9,0
   1183a:	4c01                	li	s8,0
   1183c:	060c0163          	beqz	s8,1189e <__sfvwrite_r+0x210>
   11840:	c53d                	beqz	a0,118ae <__sfvwrite_r+0x220>
   11842:	8bce                	mv	s7,s3
   11844:	013c7363          	bgeu	s8,s3,1184a <__sfvwrite_r+0x1bc>
   11848:	8be2                	mv	s7,s8
   1184a:	6008                	ld	a0,0(s0)
   1184c:	6c1c                	ld	a5,24(s0)
   1184e:	5014                	lw	a3,32(s0)
   11850:	895e                	mv	s2,s7
   11852:	00a7f763          	bgeu	a5,a0,11860 <__sfvwrite_r+0x1d2>
   11856:	445c                	lw	a5,12(s0)
   11858:	00d78abb          	addw	s5,a5,a3
   1185c:	077ac463          	blt	s5,s7,118c4 <__sfvwrite_r+0x236>
   11860:	10dbca63          	blt	s7,a3,11974 <__sfvwrite_r+0x2e6>
   11864:	603c                	ld	a5,64(s0)
   11866:	780c                	ld	a1,48(s0)
   11868:	8666                	mv	a2,s9
   1186a:	855a                	mv	a0,s6
   1186c:	9782                	jalr	a5
   1186e:	892a                	mv	s2,a0
   11870:	08a05263          	blez	a0,118f4 <__sfvwrite_r+0x266>
   11874:	0005079b          	sext.w	a5,a0
   11878:	40f989bb          	subw	s3,s3,a5
   1187c:	4505                	li	a0,1
   1187e:	06098663          	beqz	s3,118ea <__sfvwrite_r+0x25c>
   11882:	010a3783          	ld	a5,16(s4)
   11886:	9cca                	add	s9,s9,s2
   11888:	412c0c33          	sub	s8,s8,s2
   1188c:	412787b3          	sub	a5,a5,s2
   11890:	00fa3823          	sd	a5,16(s4)
   11894:	f7c5                	bnez	a5,1183c <__sfvwrite_r+0x1ae>
   11896:	6be2                	ld	s7,24(sp)
   11898:	6c42                	ld	s8,16(sp)
   1189a:	6ca2                	ld	s9,8(sp)
   1189c:	b5a5                	j	11704 <__sfvwrite_r+0x76>
   1189e:	0084bc03          	ld	s8,8(s1)
   118a2:	87a6                	mv	a5,s1
   118a4:	04c1                	addi	s1,s1,16
   118a6:	fe0c0ce3          	beqz	s8,1189e <__sfvwrite_r+0x210>
   118aa:	0007bc83          	ld	s9,0(a5) # ffffffff80000000 <__BSS_END__+0xffffffff7ffec088>
   118ae:	8662                	mv	a2,s8
   118b0:	45a9                	li	a1,10
   118b2:	8566                	mv	a0,s9
   118b4:	248000ef          	jal	11afc <memchr>
   118b8:	10050463          	beqz	a0,119c0 <__sfvwrite_r+0x332>
   118bc:	0505                	addi	a0,a0,1
   118be:	419509bb          	subw	s3,a0,s9
   118c2:	b741                	j	11842 <__sfvwrite_r+0x1b4>
   118c4:	85e6                	mv	a1,s9
   118c6:	8656                	mv	a2,s5
   118c8:	344000ef          	jal	11c0c <memmove>
   118cc:	601c                	ld	a5,0(s0)
   118ce:	85a2                	mv	a1,s0
   118d0:	855a                	mv	a0,s6
   118d2:	97d6                	add	a5,a5,s5
   118d4:	e01c                	sd	a5,0(s0)
   118d6:	d2dff0ef          	jal	11602 <_fflush_r>
   118da:	ed09                	bnez	a0,118f4 <__sfvwrite_r+0x266>
   118dc:	87d6                	mv	a5,s5
   118de:	40f989bb          	subw	s3,s3,a5
   118e2:	8956                	mv	s2,s5
   118e4:	4505                	li	a0,1
   118e6:	f8099ee3          	bnez	s3,11882 <__sfvwrite_r+0x1f4>
   118ea:	85a2                	mv	a1,s0
   118ec:	855a                	mv	a0,s6
   118ee:	d15ff0ef          	jal	11602 <_fflush_r>
   118f2:	d941                	beqz	a0,11882 <__sfvwrite_r+0x1f4>
   118f4:	01041783          	lh	a5,16(s0)
   118f8:	6be2                	ld	s7,24(sp)
   118fa:	6c42                	ld	s8,16(sp)
   118fc:	6ca2                	ld	s9,8(sp)
   118fe:	64a6                	ld	s1,72(sp)
   11900:	6906                	ld	s2,64(sp)
   11902:	79e2                	ld	s3,56(sp)
   11904:	7aa2                	ld	s5,40(sp)
   11906:	0407e793          	ori	a5,a5,64
   1190a:	00f41823          	sh	a5,16(s0)
   1190e:	557d                	li	a0,-1
   11910:	bbfd                	j	1170e <__sfvwrite_r+0x80>
   11912:	6c1c                	ld	a5,24(s0)
   11914:	02a7e863          	bltu	a5,a0,11944 <__sfvwrite_r+0x2b6>
   11918:	501c                	lw	a5,32(s0)
   1191a:	02f96563          	bltu	s2,a5,11944 <__sfvwrite_r+0x2b6>
   1191e:	86ca                	mv	a3,s2
   11920:	012bf363          	bgeu	s7,s2,11926 <__sfvwrite_r+0x298>
   11924:	86de                	mv	a3,s7
   11926:	02f6c6bb          	divw	a3,a3,a5
   1192a:	6038                	ld	a4,64(s0)
   1192c:	780c                	ld	a1,48(s0)
   1192e:	8662                	mv	a2,s8
   11930:	855a                	mv	a0,s6
   11932:	02f686bb          	mulw	a3,a3,a5
   11936:	9702                	jalr	a4
   11938:	89aa                	mv	s3,a0
   1193a:	faa05de3          	blez	a0,118f4 <__sfvwrite_r+0x266>
   1193e:	41390933          	sub	s2,s2,s3
   11942:	bd7d                	j	11800 <__sfvwrite_r+0x172>
   11944:	89d6                	mv	s3,s5
   11946:	01597363          	bgeu	s2,s5,1194c <__sfvwrite_r+0x2be>
   1194a:	89ca                	mv	s3,s2
   1194c:	864e                	mv	a2,s3
   1194e:	85e2                	mv	a1,s8
   11950:	2bc000ef          	jal	11c0c <memmove>
   11954:	6018                	ld	a4,0(s0)
   11956:	445c                	lw	a5,12(s0)
   11958:	974e                	add	a4,a4,s3
   1195a:	413787bb          	subw	a5,a5,s3
   1195e:	e018                	sd	a4,0(s0)
   11960:	c45c                	sw	a5,12(s0)
   11962:	fff1                	bnez	a5,1193e <__sfvwrite_r+0x2b0>
   11964:	85a2                	mv	a1,s0
   11966:	855a                	mv	a0,s6
   11968:	c9bff0ef          	jal	11602 <_fflush_r>
   1196c:	f541                	bnez	a0,118f4 <__sfvwrite_r+0x266>
   1196e:	41390933          	sub	s2,s2,s3
   11972:	b579                	j	11800 <__sfvwrite_r+0x172>
   11974:	865e                	mv	a2,s7
   11976:	85e6                	mv	a1,s9
   11978:	294000ef          	jal	11c0c <memmove>
   1197c:	4454                	lw	a3,12(s0)
   1197e:	6018                	ld	a4,0(s0)
   11980:	000b879b          	sext.w	a5,s7
   11984:	417686bb          	subw	a3,a3,s7
   11988:	975e                	add	a4,a4,s7
   1198a:	c454                	sw	a3,12(s0)
   1198c:	e018                	sd	a4,0(s0)
   1198e:	b5ed                	j	11878 <__sfvwrite_r+0x1ea>
   11990:	8cd6                	mv	s9,s5
   11992:	bd91                	j	117e6 <__sfvwrite_r+0x158>
   11994:	864e                	mv	a2,s3
   11996:	855a                	mv	a0,s6
   11998:	4b4000ef          	jal	11e4c <_realloc_r>
   1199c:	8caa                	mv	s9,a0
   1199e:	e20517e3          	bnez	a0,117cc <__sfvwrite_r+0x13e>
   119a2:	6c0c                	ld	a1,24(s0)
   119a4:	855a                	mv	a0,s6
   119a6:	99aff0ef          	jal	10b40 <_free_r>
   119aa:	01041783          	lh	a5,16(s0)
   119ae:	4731                	li	a4,12
   119b0:	6be2                	ld	s7,24(sp)
   119b2:	6c42                	ld	s8,16(sp)
   119b4:	6ca2                	ld	s9,8(sp)
   119b6:	00eb2023          	sw	a4,0(s6)
   119ba:	f7f7f793          	andi	a5,a5,-129
   119be:	b781                	j	118fe <__sfvwrite_r+0x270>
   119c0:	001c099b          	addiw	s3,s8,1
   119c4:	bdbd                	j	11842 <__sfvwrite_r+0x1b4>
   119c6:	01041783          	lh	a5,16(s0)
   119ca:	bf15                	j	118fe <__sfvwrite_r+0x270>
   119cc:	47b1                	li	a5,12
   119ce:	00fb2023          	sw	a5,0(s6)
   119d2:	6be2                	ld	s7,24(sp)
   119d4:	01041783          	lh	a5,16(s0)
   119d8:	6c42                	ld	s8,16(sp)
   119da:	6ca2                	ld	s9,8(sp)
   119dc:	b70d                	j	118fe <__sfvwrite_r+0x270>

00000000000119de <__swsetup_r>:
   119de:	1881b783          	ld	a5,392(gp) # 139a0 <_impure_ptr>
   119e2:	1101                	addi	sp,sp,-32
   119e4:	e822                	sd	s0,16(sp)
   119e6:	e426                	sd	s1,8(sp)
   119e8:	ec06                	sd	ra,24(sp)
   119ea:	84aa                	mv	s1,a0
   119ec:	842e                	mv	s0,a1
   119ee:	c399                	beqz	a5,119f4 <__swsetup_r+0x16>
   119f0:	67b8                	ld	a4,72(a5)
   119f2:	cb69                	beqz	a4,11ac4 <__swsetup_r+0xe6>
   119f4:	01041783          	lh	a5,16(s0)
   119f8:	0087f713          	andi	a4,a5,8
   119fc:	c315                	beqz	a4,11a20 <__swsetup_r+0x42>
   119fe:	6c18                	ld	a4,24(s0)
   11a00:	cf05                	beqz	a4,11a38 <__swsetup_r+0x5a>
   11a02:	0017f713          	andi	a4,a5,1
   11a06:	c32d                	beqz	a4,11a68 <__swsetup_r+0x8a>
   11a08:	501c                	lw	a5,32(s0)
   11a0a:	00042623          	sw	zero,12(s0)
   11a0e:	40f007bb          	negw	a5,a5
   11a12:	d41c                	sw	a5,40(s0)
   11a14:	4501                	li	a0,0
   11a16:	60e2                	ld	ra,24(sp)
   11a18:	6442                	ld	s0,16(sp)
   11a1a:	64a2                	ld	s1,8(sp)
   11a1c:	6105                	addi	sp,sp,32
   11a1e:	8082                	ret
   11a20:	0107f713          	andi	a4,a5,16
   11a24:	c761                	beqz	a4,11aec <__swsetup_r+0x10e>
   11a26:	0047f713          	andi	a4,a5,4
   11a2a:	e721                	bnez	a4,11a72 <__swsetup_r+0x94>
   11a2c:	6c18                	ld	a4,24(s0)
   11a2e:	0087e793          	ori	a5,a5,8
   11a32:	00f41823          	sh	a5,16(s0)
   11a36:	f771                	bnez	a4,11a02 <__swsetup_r+0x24>
   11a38:	2807f693          	andi	a3,a5,640
   11a3c:	20000613          	li	a2,512
   11a40:	06c69063          	bne	a3,a2,11aa0 <__swsetup_r+0xc2>
   11a44:	0017f693          	andi	a3,a5,1
   11a48:	c2d1                	beqz	a3,11acc <__swsetup_r+0xee>
   11a4a:	5018                	lw	a4,32(s0)
   11a4c:	00042623          	sw	zero,12(s0)
   11a50:	40e0073b          	negw	a4,a4
   11a54:	d418                	sw	a4,40(s0)
   11a56:	0807f713          	andi	a4,a5,128
   11a5a:	df4d                	beqz	a4,11a14 <__swsetup_r+0x36>
   11a5c:	0407e793          	ori	a5,a5,64
   11a60:	00f41823          	sh	a5,16(s0)
   11a64:	557d                	li	a0,-1
   11a66:	bf45                	j	11a16 <__swsetup_r+0x38>
   11a68:	8b89                	andi	a5,a5,2
   11a6a:	eb85                	bnez	a5,11a9a <__swsetup_r+0xbc>
   11a6c:	501c                	lw	a5,32(s0)
   11a6e:	c45c                	sw	a5,12(s0)
   11a70:	b755                	j	11a14 <__swsetup_r+0x36>
   11a72:	6c2c                	ld	a1,88(s0)
   11a74:	cd81                	beqz	a1,11a8c <__swsetup_r+0xae>
   11a76:	07440713          	addi	a4,s0,116
   11a7a:	00e58763          	beq	a1,a4,11a88 <__swsetup_r+0xaa>
   11a7e:	8526                	mv	a0,s1
   11a80:	8c0ff0ef          	jal	10b40 <_free_r>
   11a84:	01041783          	lh	a5,16(s0)
   11a88:	04043c23          	sd	zero,88(s0)
   11a8c:	6c18                	ld	a4,24(s0)
   11a8e:	fdb7f793          	andi	a5,a5,-37
   11a92:	00042423          	sw	zero,8(s0)
   11a96:	e018                	sd	a4,0(s0)
   11a98:	bf59                	j	11a2e <__swsetup_r+0x50>
   11a9a:	00042623          	sw	zero,12(s0)
   11a9e:	bf9d                	j	11a14 <__swsetup_r+0x36>
   11aa0:	8526                	mv	a0,s1
   11aa2:	85a2                	mv	a1,s0
   11aa4:	7d6000ef          	jal	1227a <__smakebuf_r>
   11aa8:	01041783          	lh	a5,16(s0)
   11aac:	6c18                	ld	a4,24(s0)
   11aae:	0017f693          	andi	a3,a5,1
   11ab2:	c685                	beqz	a3,11ada <__swsetup_r+0xfc>
   11ab4:	5014                	lw	a3,32(s0)
   11ab6:	00042623          	sw	zero,12(s0)
   11aba:	40d006bb          	negw	a3,a3
   11abe:	d414                	sw	a3,40(s0)
   11ac0:	db59                	beqz	a4,11a56 <__swsetup_r+0x78>
   11ac2:	bf89                	j	11a14 <__swsetup_r+0x36>
   11ac4:	853e                	mv	a0,a5
   11ac6:	9a1fe0ef          	jal	10466 <__sinit>
   11aca:	b72d                	j	119f4 <__swsetup_r+0x16>
   11acc:	0027f693          	andi	a3,a5,2
   11ad0:	ea99                	bnez	a3,11ae6 <__swsetup_r+0x108>
   11ad2:	5010                	lw	a2,32(s0)
   11ad4:	c450                	sw	a2,12(s0)
   11ad6:	d341                	beqz	a4,11a56 <__swsetup_r+0x78>
   11ad8:	bf35                	j	11a14 <__swsetup_r+0x36>
   11ada:	0027f693          	andi	a3,a5,2
   11ade:	4601                	li	a2,0
   11ae0:	faf5                	bnez	a3,11ad4 <__swsetup_r+0xf6>
   11ae2:	5010                	lw	a2,32(s0)
   11ae4:	bfc5                	j	11ad4 <__swsetup_r+0xf6>
   11ae6:	00042623          	sw	zero,12(s0)
   11aea:	b7b5                	j	11a56 <__swsetup_r+0x78>
   11aec:	4725                	li	a4,9
   11aee:	0407e793          	ori	a5,a5,64
   11af2:	c098                	sw	a4,0(s1)
   11af4:	00f41823          	sh	a5,16(s0)
   11af8:	557d                	li	a0,-1
   11afa:	bf31                	j	11a16 <__swsetup_r+0x38>

0000000000011afc <memchr>:
   11afc:	00757713          	andi	a4,a0,7
   11b00:	87aa                	mv	a5,a0
   11b02:	0ff5f813          	zext.b	a6,a1
   11b06:	832a                	mv	t1,a0
   11b08:	c70d                	beqz	a4,11b32 <memchr+0x36>
   11b0a:	00c508b3          	add	a7,a0,a2
   11b0e:	a039                	j	11b1c <memchr+0x20>
   11b10:	0007c683          	lbu	a3,0(a5)
   11b14:	09068663          	beq	a3,a6,11ba0 <memchr+0xa4>
   11b18:	cb11                	beqz	a4,11b2c <memchr+0x30>
   11b1a:	87aa                	mv	a5,a0
   11b1c:	00178513          	addi	a0,a5,1
   11b20:	00757713          	andi	a4,a0,7
   11b24:	fef896e3          	bne	a7,a5,11b10 <memchr+0x14>
   11b28:	4501                	li	a0,0
   11b2a:	8082                	ret
   11b2c:	167d                	addi	a2,a2,-1
   11b2e:	961a                	add	a2,a2,t1
   11b30:	8e1d                	sub	a2,a2,a5
   11b32:	489d                	li	a7,7
   11b34:	04c8fb63          	bgeu	a7,a2,11b8a <memchr+0x8e>
   11b38:	0ff5f593          	zext.b	a1,a1
   11b3c:	0085971b          	slliw	a4,a1,0x8
   11b40:	972e                	add	a4,a4,a1
   11b42:	01071593          	slli	a1,a4,0x10
   11b46:	feff07b7          	lui	a5,0xfeff0
   11b4a:	808086b7          	lui	a3,0x80808
   11b4e:	95ba                	add	a1,a1,a4
   11b50:	eff78793          	addi	a5,a5,-257 # fffffffffefefeff <__BSS_END__+0xfffffffffefdbf87>
   11b54:	08168693          	addi	a3,a3,129 # ffffffff80808081 <__BSS_END__+0xffffffff807f4109>
   11b58:	80808737          	lui	a4,0x80808
   11b5c:	02059e13          	slli	t3,a1,0x20
   11b60:	02079313          	slli	t1,a5,0x20
   11b64:	1682                	slli	a3,a3,0x20
   11b66:	08070713          	addi	a4,a4,128 # ffffffff80808080 <__BSS_END__+0xffffffff807f4108>
   11b6a:	95f2                	add	a1,a1,t3
   11b6c:	933e                	add	t1,t1,a5
   11b6e:	96ba                	add	a3,a3,a4
   11b70:	611c                	ld	a5,0(a0)
   11b72:	8fad                	xor	a5,a5,a1
   11b74:	00678733          	add	a4,a5,t1
   11b78:	fff7c793          	not	a5,a5
   11b7c:	8ff9                	and	a5,a5,a4
   11b7e:	8ff5                	and	a5,a5,a3
   11b80:	e791                	bnez	a5,11b8c <memchr+0x90>
   11b82:	1661                	addi	a2,a2,-8
   11b84:	0521                	addi	a0,a0,8
   11b86:	fec8e5e3          	bltu	a7,a2,11b70 <memchr+0x74>
   11b8a:	de59                	beqz	a2,11b28 <memchr+0x2c>
   11b8c:	962a                	add	a2,a2,a0
   11b8e:	a021                	j	11b96 <memchr+0x9a>
   11b90:	0505                	addi	a0,a0,1
   11b92:	f8c50be3          	beq	a0,a2,11b28 <memchr+0x2c>
   11b96:	00054783          	lbu	a5,0(a0)
   11b9a:	ff079be3          	bne	a5,a6,11b90 <memchr+0x94>
   11b9e:	8082                	ret
   11ba0:	853e                	mv	a0,a5
   11ba2:	8082                	ret

0000000000011ba4 <_sbrk_r>:
   11ba4:	1141                	addi	sp,sp,-16
   11ba6:	e022                	sd	s0,0(sp)
   11ba8:	842a                	mv	s0,a0
   11baa:	852e                	mv	a0,a1
   11bac:	1a01a423          	sw	zero,424(gp) # 139c0 <errno>
   11bb0:	e406                	sd	ra,8(sp)
   11bb2:	1bf000ef          	jal	12570 <_sbrk>
   11bb6:	57fd                	li	a5,-1
   11bb8:	00f50663          	beq	a0,a5,11bc4 <_sbrk_r+0x20>
   11bbc:	60a2                	ld	ra,8(sp)
   11bbe:	6402                	ld	s0,0(sp)
   11bc0:	0141                	addi	sp,sp,16
   11bc2:	8082                	ret
   11bc4:	1a81a783          	lw	a5,424(gp) # 139c0 <errno>
   11bc8:	dbf5                	beqz	a5,11bbc <_sbrk_r+0x18>
   11bca:	60a2                	ld	ra,8(sp)
   11bcc:	c01c                	sw	a5,0(s0)
   11bce:	6402                	ld	s0,0(sp)
   11bd0:	0141                	addi	sp,sp,16
   11bd2:	8082                	ret

0000000000011bd4 <__libc_fini_array>:
   11bd4:	1101                	addi	sp,sp,-32
   11bd6:	e822                	sd	s0,16(sp)
   11bd8:	00001797          	auipc	a5,0x1
   11bdc:	43878793          	addi	a5,a5,1080 # 13010 <__do_global_dtors_aux_fini_array_entry>
   11be0:	00001417          	auipc	s0,0x1
   11be4:	43840413          	addi	s0,s0,1080 # 13018 <__sglue>
   11be8:	8c1d                	sub	s0,s0,a5
   11bea:	e426                	sd	s1,8(sp)
   11bec:	ec06                	sd	ra,24(sp)
   11bee:	40345493          	srai	s1,s0,0x3
   11bf2:	c881                	beqz	s1,11c02 <__libc_fini_array+0x2e>
   11bf4:	1461                	addi	s0,s0,-8
   11bf6:	943e                	add	s0,s0,a5
   11bf8:	601c                	ld	a5,0(s0)
   11bfa:	14fd                	addi	s1,s1,-1
   11bfc:	1461                	addi	s0,s0,-8
   11bfe:	9782                	jalr	a5
   11c00:	fce5                	bnez	s1,11bf8 <__libc_fini_array+0x24>
   11c02:	60e2                	ld	ra,24(sp)
   11c04:	6442                	ld	s0,16(sp)
   11c06:	64a2                	ld	s1,8(sp)
   11c08:	6105                	addi	sp,sp,32
   11c0a:	8082                	ret

0000000000011c0c <memmove>:
   11c0c:	02a5f263          	bgeu	a1,a0,11c30 <memmove+0x24>
   11c10:	00c58733          	add	a4,a1,a2
   11c14:	00e57e63          	bgeu	a0,a4,11c30 <memmove+0x24>
   11c18:	00c507b3          	add	a5,a0,a2
   11c1c:	ca1d                	beqz	a2,11c52 <memmove+0x46>
   11c1e:	fff74683          	lbu	a3,-1(a4)
   11c22:	17fd                	addi	a5,a5,-1
   11c24:	177d                	addi	a4,a4,-1
   11c26:	00d78023          	sb	a3,0(a5)
   11c2a:	fef51ae3          	bne	a0,a5,11c1e <memmove+0x12>
   11c2e:	8082                	ret
   11c30:	47fd                	li	a5,31
   11c32:	02c7e163          	bltu	a5,a2,11c54 <memmove+0x48>
   11c36:	87aa                	mv	a5,a0
   11c38:	fff60693          	addi	a3,a2,-1
   11c3c:	ca45                	beqz	a2,11cec <memmove+0xe0>
   11c3e:	0685                	addi	a3,a3,1
   11c40:	96be                	add	a3,a3,a5
   11c42:	0005c703          	lbu	a4,0(a1)
   11c46:	0785                	addi	a5,a5,1
   11c48:	0585                	addi	a1,a1,1
   11c4a:	fee78fa3          	sb	a4,-1(a5)
   11c4e:	fed79ae3          	bne	a5,a3,11c42 <memmove+0x36>
   11c52:	8082                	ret
   11c54:	00b567b3          	or	a5,a0,a1
   11c58:	8b9d                	andi	a5,a5,7
   11c5a:	88ae                	mv	a7,a1
   11c5c:	e7c1                	bnez	a5,11ce4 <memmove+0xd8>
   11c5e:	fe060793          	addi	a5,a2,-32
   11c62:	fe07f813          	andi	a6,a5,-32
   11c66:	02080813          	addi	a6,a6,32
   11c6a:	982a                	add	a6,a6,a0
   11c6c:	872a                	mv	a4,a0
   11c6e:	6194                	ld	a3,0(a1)
   11c70:	02058593          	addi	a1,a1,32
   11c74:	02070713          	addi	a4,a4,32
   11c78:	fed73023          	sd	a3,-32(a4)
   11c7c:	fe85b683          	ld	a3,-24(a1)
   11c80:	fed73423          	sd	a3,-24(a4)
   11c84:	ff05b683          	ld	a3,-16(a1)
   11c88:	fed73823          	sd	a3,-16(a4)
   11c8c:	ff85b683          	ld	a3,-8(a1)
   11c90:	fed73c23          	sd	a3,-8(a4)
   11c94:	fd071de3          	bne	a4,a6,11c6e <memmove+0x62>
   11c98:	9b81                	andi	a5,a5,-32
   11c9a:	01178733          	add	a4,a5,a7
   11c9e:	02070593          	addi	a1,a4,32
   11ca2:	97aa                	add	a5,a5,a0
   11ca4:	01867813          	andi	a6,a2,24
   11ca8:	02078793          	addi	a5,a5,32
   11cac:	8e2e                	mv	t3,a1
   11cae:	01f67693          	andi	a3,a2,31
   11cb2:	02080e63          	beqz	a6,11cee <memmove+0xe2>
   11cb6:	16e1                	addi	a3,a3,-8
   11cb8:	9ae1                	andi	a3,a3,-8
   11cba:	9736                	add	a4,a4,a3
   11cbc:	02870713          	addi	a4,a4,40
   11cc0:	41150833          	sub	a6,a0,a7
   11cc4:	0005b303          	ld	t1,0(a1)
   11cc8:	010588b3          	add	a7,a1,a6
   11ccc:	05a1                	addi	a1,a1,8
   11cce:	0068b023          	sd	t1,0(a7)
   11cd2:	fee599e3          	bne	a1,a4,11cc4 <memmove+0xb8>
   11cd6:	00868713          	addi	a4,a3,8
   11cda:	01c705b3          	add	a1,a4,t3
   11cde:	97ba                	add	a5,a5,a4
   11ce0:	8a1d                	andi	a2,a2,7
   11ce2:	bf99                	j	11c38 <memmove+0x2c>
   11ce4:	fff60693          	addi	a3,a2,-1
   11ce8:	87aa                	mv	a5,a0
   11cea:	bf91                	j	11c3e <memmove+0x32>
   11cec:	8082                	ret
   11cee:	8636                	mv	a2,a3
   11cf0:	b7a1                	j	11c38 <memmove+0x2c>

0000000000011cf2 <memcpy>:
   11cf2:	00a5c7b3          	xor	a5,a1,a0
   11cf6:	8b9d                	andi	a5,a5,7
   11cf8:	00c508b3          	add	a7,a0,a2
   11cfc:	e7b1                	bnez	a5,11d48 <memcpy+0x56>
   11cfe:	479d                	li	a5,7
   11d00:	04c7f463          	bgeu	a5,a2,11d48 <memcpy+0x56>
   11d04:	00757793          	andi	a5,a0,7
   11d08:	872a                	mv	a4,a0
   11d0a:	e7dd                	bnez	a5,11db8 <memcpy+0xc6>
   11d0c:	ff88f613          	andi	a2,a7,-8
   11d10:	40e606b3          	sub	a3,a2,a4
   11d14:	04000793          	li	a5,64
   11d18:	04d7c463          	blt	a5,a3,11d60 <memcpy+0x6e>
   11d1c:	86ae                	mv	a3,a1
   11d1e:	87ba                	mv	a5,a4
   11d20:	02c77163          	bgeu	a4,a2,11d42 <memcpy+0x50>
   11d24:	0006b803          	ld	a6,0(a3)
   11d28:	07a1                	addi	a5,a5,8
   11d2a:	06a1                	addi	a3,a3,8
   11d2c:	ff07bc23          	sd	a6,-8(a5)
   11d30:	fec7eae3          	bltu	a5,a2,11d24 <memcpy+0x32>
   11d34:	167d                	addi	a2,a2,-1
   11d36:	8e19                	sub	a2,a2,a4
   11d38:	9a61                	andi	a2,a2,-8
   11d3a:	05a1                	addi	a1,a1,8
   11d3c:	0721                	addi	a4,a4,8
   11d3e:	95b2                	add	a1,a1,a2
   11d40:	9732                	add	a4,a4,a2
   11d42:	01176663          	bltu	a4,a7,11d4e <memcpy+0x5c>
   11d46:	8082                	ret
   11d48:	872a                	mv	a4,a0
   11d4a:	ff157ee3          	bgeu	a0,a7,11d46 <memcpy+0x54>
   11d4e:	0005c783          	lbu	a5,0(a1)
   11d52:	0705                	addi	a4,a4,1
   11d54:	0585                	addi	a1,a1,1
   11d56:	fef70fa3          	sb	a5,-1(a4)
   11d5a:	fee89ae3          	bne	a7,a4,11d4e <memcpy+0x5c>
   11d5e:	8082                	ret
   11d60:	61b4                	ld	a3,64(a1)
   11d62:	0005b383          	ld	t2,0(a1)
   11d66:	0085b283          	ld	t0,8(a1)
   11d6a:	0105bf83          	ld	t6,16(a1)
   11d6e:	0185bf03          	ld	t5,24(a1)
   11d72:	0205be83          	ld	t4,32(a1)
   11d76:	0285be03          	ld	t3,40(a1)
   11d7a:	0305b303          	ld	t1,48(a1)
   11d7e:	0385b803          	ld	a6,56(a1)
   11d82:	04870713          	addi	a4,a4,72
   11d86:	fed73c23          	sd	a3,-8(a4)
   11d8a:	fa773c23          	sd	t2,-72(a4)
   11d8e:	40e606b3          	sub	a3,a2,a4
   11d92:	fc573023          	sd	t0,-64(a4)
   11d96:	fdf73423          	sd	t6,-56(a4)
   11d9a:	fde73823          	sd	t5,-48(a4)
   11d9e:	fdd73c23          	sd	t4,-40(a4)
   11da2:	ffc73023          	sd	t3,-32(a4)
   11da6:	fe673423          	sd	t1,-24(a4)
   11daa:	ff073823          	sd	a6,-16(a4)
   11dae:	04858593          	addi	a1,a1,72
   11db2:	fad7c7e3          	blt	a5,a3,11d60 <memcpy+0x6e>
   11db6:	b79d                	j	11d1c <memcpy+0x2a>
   11db8:	0005c683          	lbu	a3,0(a1)
   11dbc:	0705                	addi	a4,a4,1
   11dbe:	00777793          	andi	a5,a4,7
   11dc2:	fed70fa3          	sb	a3,-1(a4)
   11dc6:	0585                	addi	a1,a1,1
   11dc8:	d3b1                	beqz	a5,11d0c <memcpy+0x1a>
   11dca:	0005c683          	lbu	a3,0(a1)
   11dce:	0705                	addi	a4,a4,1
   11dd0:	00777793          	andi	a5,a4,7
   11dd4:	fed70fa3          	sb	a3,-1(a4)
   11dd8:	0585                	addi	a1,a1,1
   11dda:	fff9                	bnez	a5,11db8 <memcpy+0xc6>
   11ddc:	bf05                	j	11d0c <memcpy+0x1a>

0000000000011dde <__register_exitproc>:
   11dde:	1b018713          	addi	a4,gp,432 # 139c8 <__atexit>
   11de2:	631c                	ld	a5,0(a4)
   11de4:	c3a9                	beqz	a5,11e26 <__register_exitproc+0x48>
   11de6:	4798                	lw	a4,8(a5)
   11de8:	487d                	li	a6,31
   11dea:	04e84f63          	blt	a6,a4,11e48 <__register_exitproc+0x6a>
   11dee:	c505                	beqz	a0,11e16 <__register_exitproc+0x38>
   11df0:	00371813          	slli	a6,a4,0x3
   11df4:	983e                	add	a6,a6,a5
   11df6:	10c83823          	sd	a2,272(a6)
   11dfa:	3107a883          	lw	a7,784(a5)
   11dfe:	4605                	li	a2,1
   11e00:	00e6163b          	sllw	a2,a2,a4
   11e04:	00c8e8b3          	or	a7,a7,a2
   11e08:	3117a823          	sw	a7,784(a5)
   11e0c:	20d83823          	sd	a3,528(a6)
   11e10:	4689                	li	a3,2
   11e12:	00d50e63          	beq	a0,a3,11e2e <__register_exitproc+0x50>
   11e16:	00371693          	slli	a3,a4,0x3
   11e1a:	2705                	addiw	a4,a4,1
   11e1c:	96be                	add	a3,a3,a5
   11e1e:	c798                	sw	a4,8(a5)
   11e20:	ea8c                	sd	a1,16(a3)
   11e22:	4501                	li	a0,0
   11e24:	8082                	ret
   11e26:	44818793          	addi	a5,gp,1096 # 13c60 <__atexit0>
   11e2a:	e31c                	sd	a5,0(a4)
   11e2c:	bf6d                	j	11de6 <__register_exitproc+0x8>
   11e2e:	3147a683          	lw	a3,788(a5)
   11e32:	4501                	li	a0,0
   11e34:	8e55                	or	a2,a2,a3
   11e36:	00371693          	slli	a3,a4,0x3
   11e3a:	2705                	addiw	a4,a4,1
   11e3c:	30c7aa23          	sw	a2,788(a5)
   11e40:	96be                	add	a3,a3,a5
   11e42:	c798                	sw	a4,8(a5)
   11e44:	ea8c                	sd	a1,16(a3)
   11e46:	8082                	ret
   11e48:	557d                	li	a0,-1
   11e4a:	8082                	ret

0000000000011e4c <_realloc_r>:
   11e4c:	715d                	addi	sp,sp,-80
   11e4e:	f84a                	sd	s2,48(sp)
   11e50:	e486                	sd	ra,72(sp)
   11e52:	8932                	mv	s2,a2
   11e54:	16058463          	beqz	a1,11fbc <_realloc_r+0x170>
   11e58:	e0a2                	sd	s0,64(sp)
   11e5a:	fc26                	sd	s1,56(sp)
   11e5c:	842e                	mv	s0,a1
   11e5e:	f44e                	sd	s3,40(sp)
   11e60:	f052                	sd	s4,32(sp)
   11e62:	ec56                	sd	s5,24(sp)
   11e64:	89aa                	mv	s3,a0
   11e66:	d50ff0ef          	jal	113b6 <__malloc_lock>
   11e6a:	ff843783          	ld	a5,-8(s0)
   11e6e:	01790493          	addi	s1,s2,23
   11e72:	02e00713          	li	a4,46
   11e76:	ffc7fa13          	andi	s4,a5,-4
   11e7a:	ff040a93          	addi	s5,s0,-16
   11e7e:	0c977463          	bgeu	a4,s1,11f46 <_realloc_r+0xfa>
   11e82:	80000737          	lui	a4,0x80000
   11e86:	98c1                	andi	s1,s1,-16
   11e88:	fff74713          	not	a4,a4
   11e8c:	0c976163          	bltu	a4,s1,11f4e <_realloc_r+0x102>
   11e90:	0b24ef63          	bltu	s1,s2,11f4e <_realloc_r+0x102>
   11e94:	0e9a5163          	bge	s4,s1,11f76 <_realloc_r+0x12a>
   11e98:	e062                	sd	s8,0(sp)
   11e9a:	00001c17          	auipc	s8,0x1
   11e9e:	2eec0c13          	addi	s8,s8,750 # 13188 <__malloc_av_>
   11ea2:	010c3603          	ld	a2,16(s8)
   11ea6:	014a86b3          	add	a3,s5,s4
   11eaa:	6698                	ld	a4,8(a3)
   11eac:	12d60f63          	beq	a2,a3,11fea <_realloc_r+0x19e>
   11eb0:	ffe77613          	andi	a2,a4,-2
   11eb4:	9636                	add	a2,a2,a3
   11eb6:	6610                	ld	a2,8(a2)
   11eb8:	8a05                	andi	a2,a2,1
   11eba:	e66d                	bnez	a2,11fa4 <_realloc_r+0x158>
   11ebc:	9b71                	andi	a4,a4,-4
   11ebe:	00ea0633          	add	a2,s4,a4
   11ec2:	0a965463          	bge	a2,s1,11f6a <_realloc_r+0x11e>
   11ec6:	8b85                	andi	a5,a5,1
   11ec8:	e78d                	bnez	a5,11ef2 <_realloc_r+0xa6>
   11eca:	e45e                	sd	s7,8(sp)
   11ecc:	ff043b83          	ld	s7,-16(s0)
   11ed0:	e85a                	sd	s6,16(sp)
   11ed2:	417a8bb3          	sub	s7,s5,s7
   11ed6:	008bb783          	ld	a5,8(s7) # ffffffff80000008 <__BSS_END__+0xffffffff7ffec090>
   11eda:	9bf1                	andi	a5,a5,-4
   11edc:	973e                	add	a4,a4,a5
   11ede:	01470b33          	add	s6,a4,s4
   11ee2:	229b5c63          	bge	s6,s1,1211a <_realloc_r+0x2ce>
   11ee6:	00fa0b33          	add	s6,s4,a5
   11eea:	1c9b5763          	bge	s6,s1,120b8 <_realloc_r+0x26c>
   11eee:	6b42                	ld	s6,16(sp)
   11ef0:	6ba2                	ld	s7,8(sp)
   11ef2:	85ca                	mv	a1,s2
   11ef4:	854e                	mv	a0,s3
   11ef6:	e8bfe0ef          	jal	10d80 <_malloc_r>
   11efa:	892a                	mv	s2,a0
   11efc:	2c050c63          	beqz	a0,121d4 <_realloc_r+0x388>
   11f00:	ff843783          	ld	a5,-8(s0)
   11f04:	ff050713          	addi	a4,a0,-16
   11f08:	9bf9                	andi	a5,a5,-2
   11f0a:	97d6                	add	a5,a5,s5
   11f0c:	1ae78063          	beq	a5,a4,120ac <_realloc_r+0x260>
   11f10:	ff8a0613          	addi	a2,s4,-8
   11f14:	04800793          	li	a5,72
   11f18:	1ec7ed63          	bltu	a5,a2,12112 <_realloc_r+0x2c6>
   11f1c:	02700713          	li	a4,39
   11f20:	16c76963          	bltu	a4,a2,12092 <_realloc_r+0x246>
   11f24:	87aa                	mv	a5,a0
   11f26:	8722                	mv	a4,s0
   11f28:	6314                	ld	a3,0(a4)
   11f2a:	e394                	sd	a3,0(a5)
   11f2c:	6714                	ld	a3,8(a4)
   11f2e:	e794                	sd	a3,8(a5)
   11f30:	6b18                	ld	a4,16(a4)
   11f32:	eb98                	sd	a4,16(a5)
   11f34:	85a2                	mv	a1,s0
   11f36:	854e                	mv	a0,s3
   11f38:	c09fe0ef          	jal	10b40 <_free_r>
   11f3c:	854e                	mv	a0,s3
   11f3e:	c7aff0ef          	jal	113b8 <__malloc_unlock>
   11f42:	6c02                	ld	s8,0(sp)
   11f44:	a809                	j	11f56 <_realloc_r+0x10a>
   11f46:	02000493          	li	s1,32
   11f4a:	f524f5e3          	bgeu	s1,s2,11e94 <_realloc_r+0x48>
   11f4e:	47b1                	li	a5,12
   11f50:	00f9a023          	sw	a5,0(s3)
   11f54:	4901                	li	s2,0
   11f56:	6406                	ld	s0,64(sp)
   11f58:	60a6                	ld	ra,72(sp)
   11f5a:	74e2                	ld	s1,56(sp)
   11f5c:	79a2                	ld	s3,40(sp)
   11f5e:	7a02                	ld	s4,32(sp)
   11f60:	6ae2                	ld	s5,24(sp)
   11f62:	854a                	mv	a0,s2
   11f64:	7942                	ld	s2,48(sp)
   11f66:	6161                	addi	sp,sp,80
   11f68:	8082                	ret
   11f6a:	6e9c                	ld	a5,24(a3)
   11f6c:	6a98                	ld	a4,16(a3)
   11f6e:	6c02                	ld	s8,0(sp)
   11f70:	8a32                	mv	s4,a2
   11f72:	ef1c                	sd	a5,24(a4)
   11f74:	eb98                	sd	a4,16(a5)
   11f76:	008ab783          	ld	a5,8(s5)
   11f7a:	409a06b3          	sub	a3,s4,s1
   11f7e:	467d                	li	a2,31
   11f80:	8b85                	andi	a5,a5,1
   11f82:	014a8733          	add	a4,s5,s4
   11f86:	04d66163          	bltu	a2,a3,11fc8 <_realloc_r+0x17c>
   11f8a:	0147e7b3          	or	a5,a5,s4
   11f8e:	00fab423          	sd	a5,8(s5)
   11f92:	671c                	ld	a5,8(a4)
   11f94:	0017e793          	ori	a5,a5,1
   11f98:	e71c                	sd	a5,8(a4)
   11f9a:	854e                	mv	a0,s3
   11f9c:	c1cff0ef          	jal	113b8 <__malloc_unlock>
   11fa0:	8922                	mv	s2,s0
   11fa2:	bf55                	j	11f56 <_realloc_r+0x10a>
   11fa4:	8b85                	andi	a5,a5,1
   11fa6:	f7b1                	bnez	a5,11ef2 <_realloc_r+0xa6>
   11fa8:	e45e                	sd	s7,8(sp)
   11faa:	ff043b83          	ld	s7,-16(s0)
   11fae:	e85a                	sd	s6,16(sp)
   11fb0:	417a8bb3          	sub	s7,s5,s7
   11fb4:	008bb783          	ld	a5,8(s7)
   11fb8:	9bf1                	andi	a5,a5,-4
   11fba:	b735                	j	11ee6 <_realloc_r+0x9a>
   11fbc:	60a6                	ld	ra,72(sp)
   11fbe:	7942                	ld	s2,48(sp)
   11fc0:	85b2                	mv	a1,a2
   11fc2:	6161                	addi	sp,sp,80
   11fc4:	dbdfe06f          	j	10d80 <_malloc_r>
   11fc8:	8fc5                	or	a5,a5,s1
   11fca:	00fab423          	sd	a5,8(s5)
   11fce:	009a85b3          	add	a1,s5,s1
   11fd2:	0016e693          	ori	a3,a3,1
   11fd6:	e594                	sd	a3,8(a1)
   11fd8:	671c                	ld	a5,8(a4)
   11fda:	05c1                	addi	a1,a1,16
   11fdc:	854e                	mv	a0,s3
   11fde:	0017e793          	ori	a5,a5,1
   11fe2:	e71c                	sd	a5,8(a4)
   11fe4:	b5dfe0ef          	jal	10b40 <_free_r>
   11fe8:	bf4d                	j	11f9a <_realloc_r+0x14e>
   11fea:	9b71                	andi	a4,a4,-4
   11fec:	014706b3          	add	a3,a4,s4
   11ff0:	02048613          	addi	a2,s1,32
   11ff4:	18c6de63          	bge	a3,a2,12190 <_realloc_r+0x344>
   11ff8:	8b85                	andi	a5,a5,1
   11ffa:	ee079ce3          	bnez	a5,11ef2 <_realloc_r+0xa6>
   11ffe:	e45e                	sd	s7,8(sp)
   12000:	ff043b83          	ld	s7,-16(s0)
   12004:	e85a                	sd	s6,16(sp)
   12006:	417a8bb3          	sub	s7,s5,s7
   1200a:	008bb783          	ld	a5,8(s7)
   1200e:	9bf1                	andi	a5,a5,-4
   12010:	973e                	add	a4,a4,a5
   12012:	01470b33          	add	s6,a4,s4
   12016:	eccb48e3          	blt	s6,a2,11ee6 <_realloc_r+0x9a>
   1201a:	018bb783          	ld	a5,24(s7)
   1201e:	010bb703          	ld	a4,16(s7)
   12022:	ff8a0613          	addi	a2,s4,-8
   12026:	04800693          	li	a3,72
   1202a:	ef1c                	sd	a5,24(a4)
   1202c:	eb98                	sd	a4,16(a5)
   1202e:	010b8913          	addi	s2,s7,16
   12032:	1cc6ee63          	bltu	a3,a2,1220e <_realloc_r+0x3c2>
   12036:	02700713          	li	a4,39
   1203a:	87ca                	mv	a5,s2
   1203c:	00c77f63          	bgeu	a4,a2,1205a <_realloc_r+0x20e>
   12040:	6018                	ld	a4,0(s0)
   12042:	03700793          	li	a5,55
   12046:	00ebb823          	sd	a4,16(s7)
   1204a:	6418                	ld	a4,8(s0)
   1204c:	00ebbc23          	sd	a4,24(s7)
   12050:	1ec7e063          	bltu	a5,a2,12230 <_realloc_r+0x3e4>
   12054:	0441                	addi	s0,s0,16
   12056:	020b8793          	addi	a5,s7,32
   1205a:	6018                	ld	a4,0(s0)
   1205c:	e398                	sd	a4,0(a5)
   1205e:	6418                	ld	a4,8(s0)
   12060:	e798                	sd	a4,8(a5)
   12062:	6818                	ld	a4,16(s0)
   12064:	eb98                	sd	a4,16(a5)
   12066:	009b8733          	add	a4,s7,s1
   1206a:	409b07b3          	sub	a5,s6,s1
   1206e:	00ec3823          	sd	a4,16(s8)
   12072:	0017e793          	ori	a5,a5,1
   12076:	e71c                	sd	a5,8(a4)
   12078:	008bb783          	ld	a5,8(s7)
   1207c:	854e                	mv	a0,s3
   1207e:	8b85                	andi	a5,a5,1
   12080:	8fc5                	or	a5,a5,s1
   12082:	00fbb423          	sd	a5,8(s7)
   12086:	b32ff0ef          	jal	113b8 <__malloc_unlock>
   1208a:	6b42                	ld	s6,16(sp)
   1208c:	6ba2                	ld	s7,8(sp)
   1208e:	6c02                	ld	s8,0(sp)
   12090:	b5d9                	j	11f56 <_realloc_r+0x10a>
   12092:	6014                	ld	a3,0(s0)
   12094:	03700713          	li	a4,55
   12098:	e114                	sd	a3,0(a0)
   1209a:	6414                	ld	a3,8(s0)
   1209c:	e514                	sd	a3,8(a0)
   1209e:	0cc76e63          	bltu	a4,a2,1217a <_realloc_r+0x32e>
   120a2:	01040713          	addi	a4,s0,16
   120a6:	01050793          	addi	a5,a0,16
   120aa:	bdbd                	j	11f28 <_realloc_r+0xdc>
   120ac:	ff853783          	ld	a5,-8(a0)
   120b0:	6c02                	ld	s8,0(sp)
   120b2:	9bf1                	andi	a5,a5,-4
   120b4:	9a3e                	add	s4,s4,a5
   120b6:	b5c1                	j	11f76 <_realloc_r+0x12a>
   120b8:	018bb703          	ld	a4,24(s7)
   120bc:	010bb683          	ld	a3,16(s7)
   120c0:	ff8a0613          	addi	a2,s4,-8
   120c4:	04800593          	li	a1,72
   120c8:	ee98                	sd	a4,24(a3)
   120ca:	eb14                	sd	a3,16(a4)
   120cc:	010b8913          	addi	s2,s7,16
   120d0:	0ac5e063          	bltu	a1,a2,12170 <_realloc_r+0x324>
   120d4:	02700693          	li	a3,39
   120d8:	874a                	mv	a4,s2
   120da:	00c6ff63          	bgeu	a3,a2,120f8 <_realloc_r+0x2ac>
   120de:	6018                	ld	a4,0(s0)
   120e0:	03700793          	li	a5,55
   120e4:	00ebb823          	sd	a4,16(s7)
   120e8:	6418                	ld	a4,8(s0)
   120ea:	00ebbc23          	sd	a4,24(s7)
   120ee:	0cc7e663          	bltu	a5,a2,121ba <_realloc_r+0x36e>
   120f2:	0441                	addi	s0,s0,16
   120f4:	020b8713          	addi	a4,s7,32
   120f8:	6014                	ld	a3,0(s0)
   120fa:	e314                	sd	a3,0(a4)
   120fc:	6414                	ld	a3,8(s0)
   120fe:	e714                	sd	a3,8(a4)
   12100:	6814                	ld	a3,16(s0)
   12102:	eb14                	sd	a3,16(a4)
   12104:	8a5a                	mv	s4,s6
   12106:	8ade                	mv	s5,s7
   12108:	6b42                	ld	s6,16(sp)
   1210a:	6ba2                	ld	s7,8(sp)
   1210c:	6c02                	ld	s8,0(sp)
   1210e:	844a                	mv	s0,s2
   12110:	b59d                	j	11f76 <_realloc_r+0x12a>
   12112:	85a2                	mv	a1,s0
   12114:	af9ff0ef          	jal	11c0c <memmove>
   12118:	bd31                	j	11f34 <_realloc_r+0xe8>
   1211a:	6e9c                	ld	a5,24(a3)
   1211c:	6a98                	ld	a4,16(a3)
   1211e:	ff8a0613          	addi	a2,s4,-8
   12122:	04800693          	li	a3,72
   12126:	ef1c                	sd	a5,24(a4)
   12128:	eb98                	sd	a4,16(a5)
   1212a:	010bb703          	ld	a4,16(s7)
   1212e:	018bb783          	ld	a5,24(s7)
   12132:	010b8913          	addi	s2,s7,16
   12136:	ef1c                	sd	a5,24(a4)
   12138:	eb98                	sd	a4,16(a5)
   1213a:	02c6eb63          	bltu	a3,a2,12170 <_realloc_r+0x324>
   1213e:	02700713          	li	a4,39
   12142:	87ca                	mv	a5,s2
   12144:	00c77f63          	bgeu	a4,a2,12162 <_realloc_r+0x316>
   12148:	6018                	ld	a4,0(s0)
   1214a:	03700793          	li	a5,55
   1214e:	00ebb823          	sd	a4,16(s7)
   12152:	6418                	ld	a4,8(s0)
   12154:	00ebbc23          	sd	a4,24(s7)
   12158:	08c7ec63          	bltu	a5,a2,121f0 <_realloc_r+0x3a4>
   1215c:	0441                	addi	s0,s0,16
   1215e:	020b8793          	addi	a5,s7,32
   12162:	6018                	ld	a4,0(s0)
   12164:	e398                	sd	a4,0(a5)
   12166:	6418                	ld	a4,8(s0)
   12168:	e798                	sd	a4,8(a5)
   1216a:	6818                	ld	a4,16(s0)
   1216c:	eb98                	sd	a4,16(a5)
   1216e:	bf59                	j	12104 <_realloc_r+0x2b8>
   12170:	85a2                	mv	a1,s0
   12172:	854a                	mv	a0,s2
   12174:	a99ff0ef          	jal	11c0c <memmove>
   12178:	b771                	j	12104 <_realloc_r+0x2b8>
   1217a:	6818                	ld	a4,16(s0)
   1217c:	e918                	sd	a4,16(a0)
   1217e:	6c18                	ld	a4,24(s0)
   12180:	ed18                	sd	a4,24(a0)
   12182:	04f60e63          	beq	a2,a5,121de <_realloc_r+0x392>
   12186:	02040713          	addi	a4,s0,32
   1218a:	02050793          	addi	a5,a0,32
   1218e:	bb69                	j	11f28 <_realloc_r+0xdc>
   12190:	9aa6                	add	s5,s5,s1
   12192:	409687b3          	sub	a5,a3,s1
   12196:	015c3823          	sd	s5,16(s8)
   1219a:	0017e793          	ori	a5,a5,1
   1219e:	00fab423          	sd	a5,8(s5)
   121a2:	ff843783          	ld	a5,-8(s0)
   121a6:	854e                	mv	a0,s3
   121a8:	8922                	mv	s2,s0
   121aa:	8b85                	andi	a5,a5,1
   121ac:	8fc5                	or	a5,a5,s1
   121ae:	fef43c23          	sd	a5,-8(s0)
   121b2:	a06ff0ef          	jal	113b8 <__malloc_unlock>
   121b6:	6c02                	ld	s8,0(sp)
   121b8:	bb79                	j	11f56 <_realloc_r+0x10a>
   121ba:	681c                	ld	a5,16(s0)
   121bc:	02fbb023          	sd	a5,32(s7)
   121c0:	6c1c                	ld	a5,24(s0)
   121c2:	02fbb423          	sd	a5,40(s7)
   121c6:	04b60963          	beq	a2,a1,12218 <_realloc_r+0x3cc>
   121ca:	02040413          	addi	s0,s0,32
   121ce:	030b8713          	addi	a4,s7,48
   121d2:	b71d                	j	120f8 <_realloc_r+0x2ac>
   121d4:	854e                	mv	a0,s3
   121d6:	9e2ff0ef          	jal	113b8 <__malloc_unlock>
   121da:	6c02                	ld	s8,0(sp)
   121dc:	bba5                	j	11f54 <_realloc_r+0x108>
   121de:	7014                	ld	a3,32(s0)
   121e0:	03040713          	addi	a4,s0,48
   121e4:	03050793          	addi	a5,a0,48
   121e8:	f114                	sd	a3,32(a0)
   121ea:	7414                	ld	a3,40(s0)
   121ec:	f514                	sd	a3,40(a0)
   121ee:	bb2d                	j	11f28 <_realloc_r+0xdc>
   121f0:	6818                	ld	a4,16(s0)
   121f2:	04800793          	li	a5,72
   121f6:	02ebb023          	sd	a4,32(s7)
   121fa:	6c18                	ld	a4,24(s0)
   121fc:	02ebb423          	sd	a4,40(s7)
   12200:	04f60563          	beq	a2,a5,1224a <_realloc_r+0x3fe>
   12204:	02040413          	addi	s0,s0,32
   12208:	030b8793          	addi	a5,s7,48
   1220c:	bf99                	j	12162 <_realloc_r+0x316>
   1220e:	85a2                	mv	a1,s0
   12210:	854a                	mv	a0,s2
   12212:	9fbff0ef          	jal	11c0c <memmove>
   12216:	bd81                	j	12066 <_realloc_r+0x21a>
   12218:	701c                	ld	a5,32(s0)
   1221a:	040b8713          	addi	a4,s7,64
   1221e:	03040413          	addi	s0,s0,48
   12222:	02fbb823          	sd	a5,48(s7)
   12226:	ff843783          	ld	a5,-8(s0)
   1222a:	02fbbc23          	sd	a5,56(s7)
   1222e:	b5e9                	j	120f8 <_realloc_r+0x2ac>
   12230:	681c                	ld	a5,16(s0)
   12232:	02fbb023          	sd	a5,32(s7)
   12236:	6c1c                	ld	a5,24(s0)
   12238:	02fbb423          	sd	a5,40(s7)
   1223c:	02d60363          	beq	a2,a3,12262 <_realloc_r+0x416>
   12240:	02040413          	addi	s0,s0,32
   12244:	030b8793          	addi	a5,s7,48
   12248:	bd09                	j	1205a <_realloc_r+0x20e>
   1224a:	7018                	ld	a4,32(s0)
   1224c:	040b8793          	addi	a5,s7,64
   12250:	03040413          	addi	s0,s0,48
   12254:	02ebb823          	sd	a4,48(s7)
   12258:	ff843703          	ld	a4,-8(s0)
   1225c:	02ebbc23          	sd	a4,56(s7)
   12260:	b709                	j	12162 <_realloc_r+0x316>
   12262:	7018                	ld	a4,32(s0)
   12264:	040b8793          	addi	a5,s7,64
   12268:	03040413          	addi	s0,s0,48
   1226c:	02ebb823          	sd	a4,48(s7)
   12270:	ff843703          	ld	a4,-8(s0)
   12274:	02ebbc23          	sd	a4,56(s7)
   12278:	b3cd                	j	1205a <_realloc_r+0x20e>

000000000001227a <__smakebuf_r>:
   1227a:	01059783          	lh	a5,16(a1)
   1227e:	7175                	addi	sp,sp,-144
   12280:	e122                	sd	s0,128(sp)
   12282:	e506                	sd	ra,136(sp)
   12284:	0027f713          	andi	a4,a5,2
   12288:	842e                	mv	s0,a1
   1228a:	cb19                	beqz	a4,122a0 <__smakebuf_r+0x26>
   1228c:	07758793          	addi	a5,a1,119
   12290:	4705                	li	a4,1
   12292:	e19c                	sd	a5,0(a1)
   12294:	ed9c                	sd	a5,24(a1)
   12296:	d198                	sw	a4,32(a1)
   12298:	60aa                	ld	ra,136(sp)
   1229a:	640a                	ld	s0,128(sp)
   1229c:	6149                	addi	sp,sp,144
   1229e:	8082                	ret
   122a0:	01259583          	lh	a1,18(a1)
   122a4:	fca6                	sd	s1,120(sp)
   122a6:	f8ca                	sd	s2,112(sp)
   122a8:	84aa                	mv	s1,a0
   122aa:	0605c063          	bltz	a1,1230a <__smakebuf_r+0x90>
   122ae:	0030                	addi	a2,sp,8
   122b0:	150000ef          	jal	12400 <_fstat_r>
   122b4:	04054963          	bltz	a0,12306 <__smakebuf_r+0x8c>
   122b8:	40000593          	li	a1,1024
   122bc:	8526                	mv	a0,s1
   122be:	4932                	lw	s2,12(sp)
   122c0:	ac1fe0ef          	jal	10d80 <_malloc_r>
   122c4:	01041783          	lh	a5,16(s0)
   122c8:	c141                	beqz	a0,12348 <__smakebuf_r+0xce>
   122ca:	673d                	lui	a4,0xf
   122cc:	0807e793          	ori	a5,a5,128
   122d0:	40000693          	li	a3,1024
   122d4:	00e97933          	and	s2,s2,a4
   122d8:	00f41823          	sh	a5,16(s0)
   122dc:	e008                	sd	a0,0(s0)
   122de:	ec08                	sd	a0,24(s0)
   122e0:	d014                	sw	a3,32(s0)
   122e2:	6709                	lui	a4,0x2
   122e4:	08e91663          	bne	s2,a4,12370 <__smakebuf_r+0xf6>
   122e8:	01241583          	lh	a1,18(s0)
   122ec:	8526                	mv	a0,s1
   122ee:	146000ef          	jal	12434 <_isatty_r>
   122f2:	6705                	lui	a4,0x1
   122f4:	01041783          	lh	a5,16(s0)
   122f8:	80070713          	addi	a4,a4,-2048 # 800 <exit-0xf920>
   122fc:	c915                	beqz	a0,12330 <__smakebuf_r+0xb6>
   122fe:	9bf1                	andi	a5,a5,-4
   12300:	0017e793          	ori	a5,a5,1
   12304:	a035                	j	12330 <__smakebuf_r+0xb6>
   12306:	01041783          	lh	a5,16(s0)
   1230a:	0807f793          	andi	a5,a5,128
   1230e:	40000913          	li	s2,1024
   12312:	eb85                	bnez	a5,12342 <__smakebuf_r+0xc8>
   12314:	8526                	mv	a0,s1
   12316:	85ca                	mv	a1,s2
   12318:	a69fe0ef          	jal	10d80 <_malloc_r>
   1231c:	01041783          	lh	a5,16(s0)
   12320:	c505                	beqz	a0,12348 <__smakebuf_r+0xce>
   12322:	0807e793          	ori	a5,a5,128
   12326:	e008                	sd	a0,0(s0)
   12328:	ec08                	sd	a0,24(s0)
   1232a:	03242023          	sw	s2,32(s0)
   1232e:	4701                	li	a4,0
   12330:	8fd9                	or	a5,a5,a4
   12332:	60aa                	ld	ra,136(sp)
   12334:	00f41823          	sh	a5,16(s0)
   12338:	640a                	ld	s0,128(sp)
   1233a:	74e6                	ld	s1,120(sp)
   1233c:	7946                	ld	s2,112(sp)
   1233e:	6149                	addi	sp,sp,144
   12340:	8082                	ret
   12342:	04000913          	li	s2,64
   12346:	b7f9                	j	12314 <__smakebuf_r+0x9a>
   12348:	2007f713          	andi	a4,a5,512
   1234c:	ef19                	bnez	a4,1236a <__smakebuf_r+0xf0>
   1234e:	9bf1                	andi	a5,a5,-4
   12350:	07740713          	addi	a4,s0,119
   12354:	0027e793          	ori	a5,a5,2
   12358:	4685                	li	a3,1
   1235a:	74e6                	ld	s1,120(sp)
   1235c:	7946                	ld	s2,112(sp)
   1235e:	00f41823          	sh	a5,16(s0)
   12362:	e018                	sd	a4,0(s0)
   12364:	ec18                	sd	a4,24(s0)
   12366:	d014                	sw	a3,32(s0)
   12368:	bf05                	j	12298 <__smakebuf_r+0x1e>
   1236a:	74e6                	ld	s1,120(sp)
   1236c:	7946                	ld	s2,112(sp)
   1236e:	b72d                	j	12298 <__smakebuf_r+0x1e>
   12370:	6705                	lui	a4,0x1
   12372:	80070713          	addi	a4,a4,-2048 # 800 <exit-0xf920>
   12376:	bf6d                	j	12330 <__smakebuf_r+0xb6>

0000000000012378 <__swhatbuf_r>:
   12378:	7175                	addi	sp,sp,-144
   1237a:	e122                	sd	s0,128(sp)
   1237c:	842e                	mv	s0,a1
   1237e:	01259583          	lh	a1,18(a1)
   12382:	fca6                	sd	s1,120(sp)
   12384:	f8ca                	sd	s2,112(sp)
   12386:	e506                	sd	ra,136(sp)
   12388:	84b2                	mv	s1,a2
   1238a:	8936                	mv	s2,a3
   1238c:	0205cc63          	bltz	a1,123c4 <__swhatbuf_r+0x4c>
   12390:	0030                	addi	a2,sp,8
   12392:	06e000ef          	jal	12400 <_fstat_r>
   12396:	02054763          	bltz	a0,123c4 <__swhatbuf_r+0x4c>
   1239a:	47b2                	lw	a5,12(sp)
   1239c:	66bd                	lui	a3,0xf
   1239e:	6709                	lui	a4,0x2
   123a0:	8ff5                	and	a5,a5,a3
   123a2:	8f99                	sub	a5,a5,a4
   123a4:	60aa                	ld	ra,136(sp)
   123a6:	640a                	ld	s0,128(sp)
   123a8:	0017b793          	seqz	a5,a5
   123ac:	00f92023          	sw	a5,0(s2)
   123b0:	40000713          	li	a4,1024
   123b4:	e098                	sd	a4,0(s1)
   123b6:	6505                	lui	a0,0x1
   123b8:	74e6                	ld	s1,120(sp)
   123ba:	7946                	ld	s2,112(sp)
   123bc:	80050513          	addi	a0,a0,-2048 # 800 <exit-0xf920>
   123c0:	6149                	addi	sp,sp,144
   123c2:	8082                	ret
   123c4:	01045783          	lhu	a5,16(s0)
   123c8:	0807f793          	andi	a5,a5,128
   123cc:	cf91                	beqz	a5,123e8 <__swhatbuf_r+0x70>
   123ce:	60aa                	ld	ra,136(sp)
   123d0:	640a                	ld	s0,128(sp)
   123d2:	4781                	li	a5,0
   123d4:	00f92023          	sw	a5,0(s2)
   123d8:	04000713          	li	a4,64
   123dc:	e098                	sd	a4,0(s1)
   123de:	7946                	ld	s2,112(sp)
   123e0:	74e6                	ld	s1,120(sp)
   123e2:	4501                	li	a0,0
   123e4:	6149                	addi	sp,sp,144
   123e6:	8082                	ret
   123e8:	60aa                	ld	ra,136(sp)
   123ea:	640a                	ld	s0,128(sp)
   123ec:	00f92023          	sw	a5,0(s2)
   123f0:	40000713          	li	a4,1024
   123f4:	e098                	sd	a4,0(s1)
   123f6:	7946                	ld	s2,112(sp)
   123f8:	74e6                	ld	s1,120(sp)
   123fa:	4501                	li	a0,0
   123fc:	6149                	addi	sp,sp,144
   123fe:	8082                	ret

0000000000012400 <_fstat_r>:
   12400:	1141                	addi	sp,sp,-16
   12402:	872e                	mv	a4,a1
   12404:	e022                	sd	s0,0(sp)
   12406:	85b2                	mv	a1,a2
   12408:	842a                	mv	s0,a0
   1240a:	853a                	mv	a0,a4
   1240c:	1a01a423          	sw	zero,424(gp) # 139c0 <errno>
   12410:	e406                	sd	ra,8(sp)
   12412:	0a0000ef          	jal	124b2 <_fstat>
   12416:	57fd                	li	a5,-1
   12418:	00f50663          	beq	a0,a5,12424 <_fstat_r+0x24>
   1241c:	60a2                	ld	ra,8(sp)
   1241e:	6402                	ld	s0,0(sp)
   12420:	0141                	addi	sp,sp,16
   12422:	8082                	ret
   12424:	1a81a783          	lw	a5,424(gp) # 139c0 <errno>
   12428:	dbf5                	beqz	a5,1241c <_fstat_r+0x1c>
   1242a:	60a2                	ld	ra,8(sp)
   1242c:	c01c                	sw	a5,0(s0)
   1242e:	6402                	ld	s0,0(sp)
   12430:	0141                	addi	sp,sp,16
   12432:	8082                	ret

0000000000012434 <_isatty_r>:
   12434:	1141                	addi	sp,sp,-16
   12436:	e022                	sd	s0,0(sp)
   12438:	842a                	mv	s0,a0
   1243a:	852e                	mv	a0,a1
   1243c:	1a01a423          	sw	zero,424(gp) # 139c0 <errno>
   12440:	e406                	sd	ra,8(sp)
   12442:	0b0000ef          	jal	124f2 <_isatty>
   12446:	57fd                	li	a5,-1
   12448:	00f50663          	beq	a0,a5,12454 <_isatty_r+0x20>
   1244c:	60a2                	ld	ra,8(sp)
   1244e:	6402                	ld	s0,0(sp)
   12450:	0141                	addi	sp,sp,16
   12452:	8082                	ret
   12454:	1a81a783          	lw	a5,424(gp) # 139c0 <errno>
   12458:	dbf5                	beqz	a5,1244c <_isatty_r+0x18>
   1245a:	60a2                	ld	ra,8(sp)
   1245c:	c01c                	sw	a5,0(s0)
   1245e:	6402                	ld	s0,0(sp)
   12460:	0141                	addi	sp,sp,16
   12462:	8082                	ret

0000000000012464 <_close>:
   12464:	1141                	addi	sp,sp,-16
   12466:	e406                	sd	ra,8(sp)
   12468:	e022                	sd	s0,0(sp)
   1246a:	03900893          	li	a7,57
   1246e:	00000073          	ecall
   12472:	842a                	mv	s0,a0
   12474:	00054763          	bltz	a0,12482 <_close+0x1e>
   12478:	2501                	sext.w	a0,a0
   1247a:	60a2                	ld	ra,8(sp)
   1247c:	6402                	ld	s0,0(sp)
   1247e:	0141                	addi	sp,sp,16
   12480:	8082                	ret
   12482:	1c4000ef          	jal	12646 <__errno>
   12486:	4080043b          	negw	s0,s0
   1248a:	c100                	sw	s0,0(a0)
   1248c:	557d                	li	a0,-1
   1248e:	b7f5                	j	1247a <_close+0x16>

0000000000012490 <_exit>:
   12490:	05d00893          	li	a7,93
   12494:	00000073          	ecall
   12498:	00054363          	bltz	a0,1249e <_exit+0xe>
   1249c:	a001                	j	1249c <_exit+0xc>
   1249e:	1141                	addi	sp,sp,-16
   124a0:	e022                	sd	s0,0(sp)
   124a2:	842a                	mv	s0,a0
   124a4:	e406                	sd	ra,8(sp)
   124a6:	4080043b          	negw	s0,s0
   124aa:	19c000ef          	jal	12646 <__errno>
   124ae:	c100                	sw	s0,0(a0)
   124b0:	a001                	j	124b0 <_exit+0x20>

00000000000124b2 <_fstat>:
   124b2:	7135                	addi	sp,sp,-160
   124b4:	e526                	sd	s1,136(sp)
   124b6:	ed06                	sd	ra,152(sp)
   124b8:	84ae                	mv	s1,a1
   124ba:	e922                	sd	s0,144(sp)
   124bc:	858a                	mv	a1,sp
   124be:	05000893          	li	a7,80
   124c2:	00000073          	ecall
   124c6:	842a                	mv	s0,a0
   124c8:	00054e63          	bltz	a0,124e4 <_fstat+0x32>
   124cc:	0005041b          	sext.w	s0,a0
   124d0:	8526                	mv	a0,s1
   124d2:	858a                	mv	a1,sp
   124d4:	118000ef          	jal	125ec <_conv_stat>
   124d8:	60ea                	ld	ra,152(sp)
   124da:	8522                	mv	a0,s0
   124dc:	644a                	ld	s0,144(sp)
   124de:	64aa                	ld	s1,136(sp)
   124e0:	610d                	addi	sp,sp,160
   124e2:	8082                	ret
   124e4:	4080043b          	negw	s0,s0
   124e8:	15e000ef          	jal	12646 <__errno>
   124ec:	c100                	sw	s0,0(a0)
   124ee:	547d                	li	s0,-1
   124f0:	b7c5                	j	124d0 <_fstat+0x1e>

00000000000124f2 <_isatty>:
   124f2:	7119                	addi	sp,sp,-128
   124f4:	002c                	addi	a1,sp,8
   124f6:	fc86                	sd	ra,120(sp)
   124f8:	fbbff0ef          	jal	124b2 <_fstat>
   124fc:	57fd                	li	a5,-1
   124fe:	00f50963          	beq	a0,a5,12510 <_isatty+0x1e>
   12502:	4532                	lw	a0,12(sp)
   12504:	70e6                	ld	ra,120(sp)
   12506:	00d5551b          	srliw	a0,a0,0xd
   1250a:	8905                	andi	a0,a0,1
   1250c:	6109                	addi	sp,sp,128
   1250e:	8082                	ret
   12510:	70e6                	ld	ra,120(sp)
   12512:	4501                	li	a0,0
   12514:	6109                	addi	sp,sp,128
   12516:	8082                	ret

0000000000012518 <_lseek>:
   12518:	1141                	addi	sp,sp,-16
   1251a:	e406                	sd	ra,8(sp)
   1251c:	e022                	sd	s0,0(sp)
   1251e:	03e00893          	li	a7,62
   12522:	00000073          	ecall
   12526:	842a                	mv	s0,a0
   12528:	00054763          	bltz	a0,12536 <_lseek+0x1e>
   1252c:	60a2                	ld	ra,8(sp)
   1252e:	8522                	mv	a0,s0
   12530:	6402                	ld	s0,0(sp)
   12532:	0141                	addi	sp,sp,16
   12534:	8082                	ret
   12536:	4080043b          	negw	s0,s0
   1253a:	10c000ef          	jal	12646 <__errno>
   1253e:	c100                	sw	s0,0(a0)
   12540:	547d                	li	s0,-1
   12542:	b7ed                	j	1252c <_lseek+0x14>

0000000000012544 <_read>:
   12544:	1141                	addi	sp,sp,-16
   12546:	e406                	sd	ra,8(sp)
   12548:	e022                	sd	s0,0(sp)
   1254a:	03f00893          	li	a7,63
   1254e:	00000073          	ecall
   12552:	842a                	mv	s0,a0
   12554:	00054763          	bltz	a0,12562 <_read+0x1e>
   12558:	60a2                	ld	ra,8(sp)
   1255a:	8522                	mv	a0,s0
   1255c:	6402                	ld	s0,0(sp)
   1255e:	0141                	addi	sp,sp,16
   12560:	8082                	ret
   12562:	4080043b          	negw	s0,s0
   12566:	0e0000ef          	jal	12646 <__errno>
   1256a:	c100                	sw	s0,0(a0)
   1256c:	547d                	li	s0,-1
   1256e:	b7ed                	j	12558 <_read+0x14>

0000000000012570 <_sbrk>:
   12570:	1d018693          	addi	a3,gp,464 # 139e8 <heap_end.0>
   12574:	6298                	ld	a4,0(a3)
   12576:	1141                	addi	sp,sp,-16
   12578:	e406                	sd	ra,8(sp)
   1257a:	87aa                	mv	a5,a0
   1257c:	eb19                	bnez	a4,12592 <_sbrk+0x22>
   1257e:	0d600893          	li	a7,214
   12582:	4501                	li	a0,0
   12584:	00000073          	ecall
   12588:	567d                	li	a2,-1
   1258a:	872a                	mv	a4,a0
   1258c:	02c50263          	beq	a0,a2,125b0 <_sbrk+0x40>
   12590:	e288                	sd	a0,0(a3)
   12592:	00e78533          	add	a0,a5,a4
   12596:	0d600893          	li	a7,214
   1259a:	00000073          	ecall
   1259e:	6298                	ld	a4,0(a3)
   125a0:	97ba                	add	a5,a5,a4
   125a2:	00f51763          	bne	a0,a5,125b0 <_sbrk+0x40>
   125a6:	60a2                	ld	ra,8(sp)
   125a8:	e288                	sd	a0,0(a3)
   125aa:	853a                	mv	a0,a4
   125ac:	0141                	addi	sp,sp,16
   125ae:	8082                	ret
   125b0:	096000ef          	jal	12646 <__errno>
   125b4:	60a2                	ld	ra,8(sp)
   125b6:	47b1                	li	a5,12
   125b8:	c11c                	sw	a5,0(a0)
   125ba:	557d                	li	a0,-1
   125bc:	0141                	addi	sp,sp,16
   125be:	8082                	ret

00000000000125c0 <_write>:
   125c0:	1141                	addi	sp,sp,-16
   125c2:	e406                	sd	ra,8(sp)
   125c4:	e022                	sd	s0,0(sp)
   125c6:	04000893          	li	a7,64
   125ca:	00000073          	ecall
   125ce:	842a                	mv	s0,a0
   125d0:	00054763          	bltz	a0,125de <_write+0x1e>
   125d4:	60a2                	ld	ra,8(sp)
   125d6:	8522                	mv	a0,s0
   125d8:	6402                	ld	s0,0(sp)
   125da:	0141                	addi	sp,sp,16
   125dc:	8082                	ret
   125de:	4080043b          	negw	s0,s0
   125e2:	064000ef          	jal	12646 <__errno>
   125e6:	c100                	sw	s0,0(a0)
   125e8:	547d                	li	s0,-1
   125ea:	b7ed                	j	125d4 <_write+0x14>

00000000000125ec <_conv_stat>:
   125ec:	0005b383          	ld	t2,0(a1)
   125f0:	0085b283          	ld	t0,8(a1)
   125f4:	0105af83          	lw	t6,16(a1)
   125f8:	0145af03          	lw	t5,20(a1)
   125fc:	0185ae83          	lw	t4,24(a1)
   12600:	01c5ae03          	lw	t3,28(a1)
   12604:	0205b303          	ld	t1,32(a1)
   12608:	0305b883          	ld	a7,48(a1)
   1260c:	0405b803          	ld	a6,64(a1)
   12610:	5d90                	lw	a2,56(a1)
   12612:	65b4                	ld	a3,72(a1)
   12614:	6db8                	ld	a4,88(a1)
   12616:	75bc                	ld	a5,104(a1)
   12618:	00751023          	sh	t2,0(a0)
   1261c:	00551123          	sh	t0,2(a0)
   12620:	01f52223          	sw	t6,4(a0)
   12624:	01e51423          	sh	t5,8(a0)
   12628:	01d51523          	sh	t4,10(a0)
   1262c:	01c51623          	sh	t3,12(a0)
   12630:	00651723          	sh	t1,14(a0)
   12634:	01153823          	sd	a7,16(a0)
   12638:	05053823          	sd	a6,80(a0)
   1263c:	e530                	sd	a2,72(a0)
   1263e:	ed14                	sd	a3,24(a0)
   12640:	f518                	sd	a4,40(a0)
   12642:	fd1c                	sd	a5,56(a0)
   12644:	8082                	ret

0000000000012646 <__errno>:
   12646:	1881b503          	ld	a0,392(gp) # 139a0 <_impure_ptr>
   1264a:	8082                	ret
